ccopy_reg
_reconstructor
p0
(cAISuite.genetics
Generation
p1
c__builtin__
object
p2
Ntp3
Rp4
(dp5
S'generation'
p6
(lp7
g0
(c__main__
C4Organism
p8
g2
Ntp9
Rp10
(dp11
S'wins'
p12
I0
sS'losses'
p13
I0
sS'weights'
p14
(dp15
S' '
p16
(lp17
(lp18
I-89
aI-3
aI-52
aI-55
aI88
aI30
aI-42
aa(lp19
I-76
aI-38
aI52
aI31
aI-3
aI-51
aI99
aa(lp20
I-86
aI15
aI31
aI-71
aI-55
aI-9
aI-62
aa(lp21
I-67
aI71
aI28
aI-74
aI-89
aI-19
aI-56
aa(lp22
I22
aI91
aI62
aI-82
aI-79
aI65
aI-40
aa(lp23
I29
aI-68
aI21
aI67
aI49
aI81
aI45
aasS'O'
p24
(lp25
(lp26
I47
aI84
aI-12
aI85
aI-36
aI51
aI-45
aa(lp27
I-82
aI47
aI9
aI56
aI19
aI-41
aI41
aa(lp28
I56
aI55
aI-21
aI58
aI86
aI35
aI75
aa(lp29
I67
aI39
aI-66
aI-25
aI15
aI43
aI38
aa(lp30
I-51
aI-50
aI62
aI4
aI87
aI-75
aI-46
aa(lp31
I-66
aI-57
aI-58
aI-39
aI25
aI36
aI-68
aasS'X'
p32
(lp33
(lp34
I-23
aI49
aI-37
aI-45
aI74
aI25
aI12
aa(lp35
I-5
aI-75
aI59
aI34
aI25
aI61
aI36
aa(lp36
I75
aI-62
aI39
aI81
aI-50
aI-36
aI-100
aa(lp37
I81
aI31
aI-66
aI90
aI-40
aI40
aI-67
aa(lp38
I-54
aI-29
aI57
aI-88
aI43
aI-59
aI-9
aa(lp39
I91
aI-88
aI-18
aI53
aI80
aI-48
aI-46
aassbag0
(g8
g2
Ntp40
Rp41
(dp42
g12
I0
sg13
I0
sg14
(dp43
g16
(lp44
(lp45
I47
aI62
aI22
aI-75
aI-49
aI21
aI37
aa(lp46
I-76
aI-34
aI-75
aI24
aI5
aI-49
aI75
aa(lp47
I19
aI-63
aI-48
aI-87
aI-70
aI-2
aI17
aa(lp48
I85
aI69
aI-47
aI-41
aI-89
aI7
aI-55
aa(lp49
I27
aI-75
aI-29
aI-69
aI76
aI68
aI29
aa(lp50
I-31
aI-97
aI4
aI68
aI74
aI-71
aI23
aasg24
(lp51
(lp52
I77
aI-25
aI63
aI66
aI42
aI-39
aI-45
aa(lp53
I-83
aI61
aI15
aI70
aI13
aI-60
aI-61
aa(lp54
I46
aI83
aI-18
aI52
aI71
aI-78
aI75
aa(lp55
I-30
aI-71
aI20
aI-44
aI-11
aI44
aI21
aa(lp56
I51
aI45
aI-26
aI-27
aI-68
aI37
aI-63
aa(lp57
I46
aI81
aI79
aI-34
aI87
aI41
aI-48
aasg32
(lp58
(lp59
I17
aI47
aI-25
aI-60
aI80
aI-81
aI56
aa(lp60
I36
aI-57
aI23
aI57
aI69
aI-90
aI-84
aa(lp61
I74
aI-17
aI-78
aI-70
aI-18
aI-32
aI14
aa(lp62
I65
aI60
aI-62
aI48
aI-12
aI69
aI47
aa(lp63
I-10
aI-10
aI12
aI-96
aI81
aI-29
aI-10
aa(lp64
I-100
aI36
aI-29
aI53
aI80
aI80
aI85
aassbag0
(g8
g2
Ntp65
Rp66
(dp67
g12
I0
sg13
I0
sg14
(dp68
g16
(lp69
(lp70
I-74
aI-3
aI61
aI-74
aI88
aI-34
aI95
aa(lp71
I-13
aI50
aI53
aI-84
aI-10
aI-78
aI-82
aa(lp72
I21
aI10
aI31
aI-62
aI-53
aI44
aI-72
aa(lp73
I58
aI84
aI64
aI80
aI69
aI-54
aI-66
aa(lp74
I17
aI91
aI96
aI-49
aI-44
aI-77
aI-34
aa(lp75
I33
aI-68
aI32
aI43
aI11
aI74
aI-14
aasg24
(lp76
(lp77
I13
aI63
aI77
aI-60
aI-36
aI-45
aI63
aa(lp78
I-97
aI-54
aI-52
aI77
aI-78
aI-41
aI41
aa(lp79
I73
aI-43
aI-37
aI59
aI-21
aI43
aI-43
aa(lp80
I67
aI39
aI-69
aI52
aI1
aI64
aI56
aa(lp81
I-51
aI-13
aI47
aI-90
aI64
aI68
aI-28
aa(lp82
I8
aI-100
aI-37
aI-45
aI28
aI35
aI-68
aasg32
(lp83
(lp84
I-10
aI-85
aI31
aI58
aI-24
aI8
aI13
aa(lp85
I-5
aI42
aI88
aI-43
aI33
aI-32
aI53
aa(lp86
I72
aI-77
aI51
aI-85
aI-86
aI77
aI-49
aa(lp87
I57
aI31
aI-35
aI84
aI-47
aI30
aI99
aa(lp88
I-80
aI-47
aI90
aI-73
aI-38
aI-51
aI89
aa(lp89
I86
aI87
aI91
aI22
aI-46
aI-26
aI-61
aassbag0
(g8
g2
Ntp90
Rp91
(dp92
g12
I0
sg13
I0
sg14
(dp93
g16
(lp94
(lp95
I-49
aI-39
aI61
aI-94
aI-45
aI9
aI37
aa(lp96
I-13
aI31
aI-75
aI37
aI-15
aI-75
aI-85
aa(lp97
I-53
aI-37
aI-18
aI-78
aI-66
aI-2
aI-58
aa(lp98
I64
aI82
aI87
aI80
aI66
aI-45
aI-60
aa(lp99
I-89
aI10
aI-38
aI-36
aI-9
aI94
aI-16
aa(lp100
I-31
aI-97
aI-38
aI44
aI60
aI66
aI17
aasg24
(lp101
(lp102
I42
aI-49
aI77
aI48
aI49
aI11
aI34
aa(lp103
I-90
aI76
aI-83
aI90
aI13
aI-59
aI-69
aa(lp104
I80
aI-43
aI43
aI53
aI43
aI52
aI-3
aa(lp105
I-73
aI39
aI27
aI55
aI-42
aI-99
aI-17
aa(lp106
I58
aI-13
aI-26
aI-67
aI-89
aI52
aI75
aa(lp107
I34
aI87
aI-39
aI-40
aI59
aI39
aI17
aasg32
(lp108
(lp109
I50
aI54
aI-10
aI-74
aI-24
aI-81
aI35
aa(lp110
I7
aI70
aI-5
aI-80
aI55
aI-49
aI76
aa(lp111
I73
aI-55
aI45
aI-70
aI-54
aI55
aI14
aa(lp112
I-37
aI-100
aI-33
aI43
aI-20
aI-40
aI80
aa(lp113
I-62
aI45
aI44
aI-67
aI-39
aI-21
aI92
aa(lp114
I87
aI51
aI-45
aI22
aI-67
aI89
aI-66
aassbag0
(g8
g2
Ntp115
Rp116
(dp117
g12
I0
sg13
I0
sg14
(dp118
g16
(lp119
(lp120
I-74
aI-3
aI-52
aI-74
aI-39
aI26
aI-59
aa(lp121
I79
aI50
aI53
aI-84
aI-10
aI-78
aI-82
aa(lp122
I-53
aI10
aI31
aI-62
aI-53
aI-9
aI-72
aa(lp123
I58
aI84
aI64
aI80
aI69
aI-54
aI-66
aa(lp124
I17
aI-25
aI96
aI-49
aI-44
aI88
aI-34
aa(lp125
I33
aI100
aI32
aI43
aI11
aI74
aI32
aasg24
(lp126
(lp127
I13
aI63
aI77
aI-60
aI-36
aI51
aI63
aa(lp128
I-97
aI-54
aI-52
aI77
aI19
aI-41
aI41
aa(lp129
I73
aI13
aI-37
aI59
aI31
aI43
aI36
aa(lp130
I-73
aI39
aI-69
aI52
aI-73
aI64
aI-13
aa(lp131
I30
aI-13
aI47
aI-90
aI64
aI68
aI80
aa(lp132
I-66
aI93
aI-37
aI-45
aI28
aI35
aI-68
aasg32
(lp133
(lp134
I-10
aI63
aI-7
aI58
aI74
aI8
aI13
aa(lp135
I7
aI42
aI88
aI-43
aI33
aI-32
aI53
aa(lp136
I-91
aI-77
aI51
aI50
aI-86
aI-39
aI-49
aa(lp137
I57
aI-100
aI-35
aI84
aI-47
aI30
aI-67
aa(lp138
I-80
aI8
aI90
aI-73
aI-38
aI-51
aI89
aa(lp139
I86
aI-88
aI-49
aI22
aI-46
aI-26
aI-61
aassbag0
(g8
g2
Ntp140
Rp141
(dp142
g12
I0
sg13
I0
sg14
(dp143
g16
(lp144
(lp145
I47
aI62
aI49
aI10
aI-47
aI-61
aI99
aa(lp146
I-59
aI-34
aI14
aI36
aI-1
aI-21
aI99
aa(lp147
I-88
aI36
aI78
aI78
aI-51
aI-63
aI-63
aa(lp148
I49
aI-39
aI11
aI61
aI-89
aI7
aI-56
aa(lp149
I50
aI-75
aI52
aI-78
aI58
aI-64
aI99
aa(lp150
I9
aI33
aI4
aI69
aI88
aI89
aI54
aasg24
(lp151
(lp152
I73
aI-10
aI63
aI85
aI2
aI-32
aI49
aa(lp153
I-82
aI36
aI10
aI25
aI-81
aI-69
aI50
aa(lp154
I-90
aI-9
aI-9
aI52
aI-10
aI-45
aI69
aa(lp155
I-47
aI-71
aI37
aI-25
aI-48
aI39
aI-56
aa(lp156
I8
aI-60
aI78
aI-9
aI-47
aI-75
aI-80
aa(lp157
I62
aI-15
aI-81
aI4
aI-62
aI40
aI-11
aasg32
(lp158
(lp159
I-37
aI-21
aI-37
aI44
aI-53
aI68
aI-48
aa(lp160
I50
aI-35
aI28
aI34
aI-39
aI42
aI-69
aa(lp161
I86
aI24
aI-16
aI-70
aI-22
aI-36
aI-94
aa(lp162
I65
aI-89
aI21
aI64
aI87
aI68
aI65
aa(lp163
I-32
aI-10
aI9
aI-82
aI81
aI8
aI52
aa(lp164
I-100
aI53
aI-58
aI58
aI-59
aI58
aI-36
aassbag0
(g8
g2
Ntp165
Rp166
(dp167
g12
I0
sg13
I0
sg14
(dp168
g16
(lp169
(lp170
I47
aI62
aI22
aI-55
aI-47
aI30
aI-42
aa(lp171
I-76
aI-38
aI52
aI31
aI-3
aI-51
aI99
aa(lp172
I-86
aI-89
aI-48
aI-71
aI-55
aI20
aI-62
aa(lp173
I74
aI71
aI28
aI52
aI-89
aI7
aI12
aa(lp174
I22
aI91
aI62
aI-82
aI84
aI65
aI-40
aa(lp175
I29
aI33
aI21
aI67
aI49
aI81
aI-14
aasg24
(lp176
(lp177
I47
aI-1
aI-12
aI-40
aI-36
aI51
aI61
aa(lp178
I-82
aI-42
aI-21
aI56
aI19
aI-41
aI41
aa(lp179
I56
aI55
aI-21
aI58
aI86
aI35
aI75
aa(lp180
I-30
aI39
aI-66
aI49
aI15
aI43
aI38
aa(lp181
I-51
aI6
aI62
aI-9
aI-47
aI-75
aI-46
aa(lp182
I32
aI-57
aI-58
aI-39
aI25
aI36
aI99
aasg32
(lp183
(lp184
I-23
aI-85
aI31
aI77
aI74
aI25
aI-50
aa(lp185
I64
aI-75
aI59
aI34
aI-42
aI61
aI36
aa(lp186
I-91
aI-62
aI39
aI-85
aI-50
aI-36
aI-100
aa(lp187
I81
aI31
aI-66
aI90
aI-40
aI40
aI-67
aa(lp188
I-54
aI-29
aI57
aI-88
aI43
aI-59
aI-9
aa(lp189
I-100
aI-88
aI91
aI53
aI-22
aI-48
aI-46
aassbag0
(g8
g2
Ntp190
Rp191
(dp192
g12
I0
sg13
I0
sg14
(dp193
g16
(lp194
(lp195
I-89
aI62
aI49
aI10
aI-47
aI34
aI-42
aa(lp196
I-59
aI-34
aI-72
aI36
aI-1
aI-21
aI-97
aa(lp197
I-88
aI-89
aI-48
aI78
aI-51
aI-63
aI-63
aa(lp198
I-67
aI57
aI11
aI61
aI-89
aI7
aI42
aa(lp199
I50
aI-75
aI52
aI-78
aI58
aI43
aI-28
aa(lp200
I-49
aI33
aI4
aI-67
aI88
aI89
aI54
aasg24
(lp201
(lp202
I73
aI-10
aI63
aI85
aI2
aI-32
aI-45
aa(lp203
I14
aI36
aI10
aI25
aI-81
aI-69
aI-61
aa(lp204
I46
aI-9
aI-9
aI52
aI86
aI-45
aI69
aa(lp205
I-47
aI-71
aI37
aI22
aI-48
aI39
aI21
aa(lp206
I8
aI-60
aI78
aI56
aI-47
aI-75
aI-80
aa(lp207
I62
aI-15
aI30
aI-47
aI-62
aI40
aI-11
aasg32
(lp208
(lp209
I-37
aI-21
aI49
aI44
aI-53
aI68
aI-48
aa(lp210
I50
aI-67
aI28
aI-82
aI-39
aI42
aI-69
aa(lp211
I86
aI-60
aI20
aI81
aI-22
aI-36
aI-94
aa(lp212
I-8
aI-89
aI21
aI64
aI-12
aI-52
aI65
aa(lp213
I-32
aI-10
aI9
aI-82
aI81
aI-26
aI52
aa(lp214
I-100
aI53
aI-58
aI58
aI-59
aI58
aI-36
aassbag0
(g8
g2
Ntp215
Rp216
(dp217
g12
I0
sg13
I0
sg14
(dp218
g16
(lp219
(lp220
I-65
aI-63
aI-94
aI10
aI44
aI-61
aI68
aa(lp221
I-41
aI-30
aI-74
aI29
aI40
aI-38
aI52
aa(lp222
I-90
aI36
aI79
aI78
aI-32
aI-33
aI17
aa(lp223
I67
aI82
aI7
aI-41
aI49
aI-28
aI-53
aa(lp224
I74
aI53
aI-29
aI-72
aI50
aI-64
aI64
aa(lp225
I-40
aI-50
aI-38
aI68
aI74
aI-71
aI32
aasg24
(lp226
(lp227
I67
aI-34
aI-59
aI-31
aI82
aI-24
aI26
aa(lp228
I14
aI50
aI17
aI52
aI-73
aI-73
aI61
aa(lp229
I-57
aI69
aI-22
aI70
aI56
aI-44
aI64
aa(lp230
I-63
aI21
aI44
aI22
aI-30
aI34
aI-39
aa(lp231
I44
aI-69
aI-63
aI56
aI-68
aI37
aI71
aa(lp232
I77
aI81
aI54
aI4
aI87
aI35
aI-30
aasg32
(lp233
(lp234
I-39
aI46
aI-12
aI-74
aI80
aI-81
aI-46
aa(lp235
I22
aI99
aI33
aI81
aI-36
aI24
aI-54
aa(lp236
I86
aI-39
aI-47
aI-70
aI-15
aI34
aI14
aa(lp237
I-23
aI68
aI24
aI24
aI-12
aI-40
aI79
aa(lp238
I73
aI70
aI5
aI-68
aI-40
aI8
aI73
aa(lp239
I79
aI32
aI-69
aI64
aI-62
aI69
aI85
aassbag0
(g8
g2
Ntp240
Rp241
(dp242
g12
I0
sg13
I0
sg14
(dp243
g16
(lp244
(lp245
I-89
aI62
aI49
aI10
aI44
aI34
aI-42
aa(lp246
I-59
aI-34
aI14
aI36
aI75
aI-21
aI-97
aa(lp247
I-88
aI36
aI78
aI78
aI-51
aI-63
aI-63
aa(lp248
I49
aI57
aI11
aI61
aI54
aI7
aI-56
aa(lp249
I50
aI-75
aI52
aI-78
aI58
aI43
aI-28
aa(lp250
I-49
aI-3
aI4
aI69
aI88
aI89
aI54
aasg24
(lp251
(lp252
I73
aI-10
aI-51
aI-31
aI2
aI-32
aI49
aa(lp253
I14
aI36
aI10
aI25
aI-81
aI-69
aI-61
aa(lp254
I46
aI97
aI-9
aI52
aI86
aI-45
aI69
aa(lp255
I-47
aI3
aI37
aI-25
aI-48
aI39
aI21
aa(lp256
I8
aI-60
aI78
aI-9
aI-47
aI-75
aI-80
aa(lp257
I62
aI-15
aI-81
aI-47
aI-62
aI40
aI-11
aasg32
(lp258
(lp259
I-37
aI49
aI49
aI44
aI-53
aI68
aI-48
aa(lp260
I50
aI-35
aI28
aI34
aI-39
aI42
aI-69
aa(lp261
I86
aI24
aI20
aI81
aI-22
aI-36
aI-94
aa(lp262
I-8
aI-89
aI21
aI64
aI87
aI68
aI65
aa(lp263
I-32
aI-10
aI9
aI-82
aI81
aI8
aI52
aa(lp264
I-100
aI53
aI-58
aI58
aI80
aI58
aI-36
aassbag0
(g8
g2
Ntp265
Rp266
(dp267
g12
I0
sg13
I0
sg14
(dp268
g16
(lp269
(lp270
I-74
aI42
aI-52
aI-74
aI-39
aI-34
aI-59
aa(lp271
I79
aI50
aI53
aI-84
aI-10
aI-78
aI-82
aa(lp272
I21
aI10
aI31
aI-62
aI-53
aI44
aI-72
aa(lp273
I58
aI84
aI64
aI-74
aI69
aI-54
aI12
aa(lp274
I-79
aI91
aI96
aI-49
aI-44
aI88
aI-34
aa(lp275
I33
aI100
aI32
aI43
aI11
aI74
aI-14
aasg24
(lp276
(lp277
I13
aI63
aI77
aI-60
aI16
aI-45
aI63
aa(lp278
I-97
aI-54
aI-52
aI77
aI19
aI-41
aI41
aa(lp279
I73
aI13
aI-37
aI59
aI31
aI43
aI36
aa(lp280
I67
aI39
aI-69
aI52
aI1
aI64
aI-13
aa(lp281
I30
aI-13
aI47
aI4
aI64
aI68
aI80
aa(lp282
I8
aI-100
aI-37
aI-45
aI28
aI35
aI17
aasg32
(lp283
(lp284
I-10
aI-85
aI-7
aI58
aI-24
aI8
aI13
aa(lp285
I7
aI-92
aI88
aI-43
aI33
aI-32
aI53
aa(lp286
I-91
aI-77
aI51
aI50
aI-86
aI-39
aI-49
aa(lp287
I57
aI-100
aI-35
aI84
aI-47
aI30
aI99
aa(lp288
I-80
aI8
aI90
aI-73
aI-38
aI-51
aI89
aa(lp289
I86
aI-88
aI-49
aI22
aI-46
aI98
aI-61
aassbag0
(g8
g2
Ntp290
Rp291
(dp292
g12
I0
sg13
I0
sg14
(dp293
g16
(lp294
(lp295
I-65
aI-63
aI77
aI-99
aI-51
aI-61
aI68
aa(lp296
I64
aI-30
aI-74
aI29
aI40
aI-38
aI-97
aa(lp297
I19
aI-37
aI79
aI78
aI-32
aI-33
aI17
aa(lp298
I67
aI82
aI7
aI-41
aI49
aI-28
aI42
aa(lp299
I-99
aI53
aI-29
aI-72
aI50
aI94
aI64
aa(lp300
I-40
aI-50
aI-38
aI68
aI74
aI99
aI32
aasg24
(lp301
(lp302
I67
aI-34
aI-59
aI-31
aI82
aI11
aI26
aa(lp303
I14
aI50
aI17
aI52
aI-73
aI-73
aI61
aa(lp304
I-57
aI69
aI-22
aI70
aI56
aI-44
aI-3
aa(lp305
I-63
aI21
aI44
aI22
aI-30
aI-99
aI-39
aa(lp306
I44
aI45
aI-63
aI-44
aI-68
aI-52
aI71
aa(lp307
I77
aI81
aI54
aI4
aI87
aI35
aI-30
aasg32
(lp308
(lp309
I-39
aI46
aI-12
aI-74
aI80
aI-81
aI56
aa(lp310
I22
aI-12
aI-5
aI81
aI69
aI-90
aI81
aa(lp311
I86
aI-39
aI-47
aI-70
aI-15
aI34
aI-87
aa(lp312
I-23
aI68
aI24
aI24
aI-12
aI-40
aI79
aa(lp313
I-54
aI70
aI5
aI-68
aI-40
aI-32
aI73
aa(lp314
I79
aI32
aI-69
aI-66
aI-62
aI69
aI85
aassbag0
(g8
g2
Ntp315
Rp316
(dp317
g12
I0
sg13
I0
sg14
(dp318
g16
(lp319
(lp320
I47
aI-3
aI-52
aI-55
aI88
aI30
aI95
aa(lp321
I79
aI70
aI52
aI31
aI-3
aI-51
aI-78
aa(lp322
I21
aI15
aI-48
aI-71
aI-55
aI-9
aI-62
aa(lp323
I74
aI71
aI28
aI52
aI-89
aI-19
aI12
aa(lp324
I22
aI-75
aI62
aI-82
aI-79
aI65
aI-40
aa(lp325
I29
aI-68
aI21
aI67
aI49
aI81
aI-14
aasg24
(lp326
(lp327
I47
aI84
aI63
aI-40
aI-36
aI-39
aI61
aa(lp328
I2
aI-42
aI9
aI56
aI19
aI-41
aI-61
aa(lp329
I56
aI55
aI-21
aI58
aI-21
aI35
aI75
aa(lp330
I-30
aI-71
aI13
aI49
aI15
aI43
aI38
aa(lp331
I16
aI-50
aI62
aI-9
aI87
aI-75
aI-46
aa(lp332
I32
aI-57
aI-58
aI-39
aI-40
aI36
aI-68
aasg32
(lp333
(lp334
I-23
aI49
aI31
aI-45
aI-14
aI25
aI12
aa(lp335
I64
aI-75
aI59
aI34
aI25
aI-57
aI-84
aa(lp336
I75
aI-62
aI39
aI-85
aI-50
aI-36
aI-100
aa(lp337
I81
aI-89
aI-66
aI90
aI-40
aI40
aI-67
aa(lp338
I-54
aI-29
aI57
aI-88
aI43
aI-59
aI-9
aa(lp339
I-100
aI-88
aI91
aI53
aI80
aI-48
aI-46
aassbag0
(g8
g2
Ntp340
Rp341
(dp342
g12
I0
sg13
I0
sg14
(dp343
g16
(lp344
(lp345
I-89
aI-45
aI77
aI10
aI66
aI-61
aI97
aa(lp346
I-41
aI-30
aI-72
aI41
aI75
aI-40
aI-88
aa(lp347
I21
aI25
aI54
aI-56
aI-36
aI-36
aI-87
aa(lp348
I61
aI-39
aI24
aI-74
aI52
aI-36
aI27
aa(lp349
I45
aI93
aI86
aI-85
aI-79
aI77
aI99
aa(lp350
I-49
aI-36
aI21
aI-67
aI49
aI91
aI-14
aasg24
(lp351
(lp352
I37
aI84
aI-32
aI-36
aI-36
aI-24
aI55
aa(lp353
I8
aI-42
aI-21
aI38
aI-73
aI-55
aI45
aa(lp354
I66
aI13
aI-25
aI76
aI-16
aI35
aI-43
aa(lp355
I-63
aI21
aI-66
aI35
aI1
aI38
aI-56
aa(lp356
I1
aI-69
aI47
aI30
aI-46
aI-52
aI-63
aa(lp357
I93
aI-59
aI-35
aI-30
aI-83
aI31
aI-40
aasg32
(lp358
(lp359
I-25
aI-53
aI40
aI60
aI-92
aI47
aI-46
aa(lp360
I37
aI-52
aI64
aI-44
aI-36
aI24
aI-54
aa(lp361
I98
aI-61
aI-16
aI-78
aI-46
aI-40
aI57
aa(lp362
I-8
aI53
aI24
aI65
aI87
aI40
aI-67
aa(lp363
I-76
aI-47
aI51
aI-74
aI5
aI-91
aI52
aa(lp364
I79
aI-88
aI-98
aI64
aI-41
aI58
aI-56
aassbag0
(g8
g2
Ntp365
Rp366
(dp367
g12
I0
sg13
I0
sg14
(dp368
g16
(lp369
(lp370
I-49
aI42
aI-94
aI-94
aI-45
aI9
aI37
aa(lp371
I64
aI-29
aI-75
aI37
aI5
aI-75
aI52
aa(lp372
I19
aI-37
aI80
aI-78
aI-66
aI-2
aI-58
aa(lp373
I64
aI82
aI87
aI80
aI66
aI-45
aI-60
aa(lp374
I-89
aI-25
aI-38
aI-36
aI68
aI-77
aI-16
aa(lp375
I-31
aI-97
aI27
aI44
aI-15
aI-71
aI17
aasg24
(lp376
(lp377
I42
aI42
aI77
aI-79
aI49
aI-45
aI34
aa(lp378
I-90
aI76
aI22
aI90
aI-78
aI-59
aI72
aa(lp379
I-23
aI69
aI43
aI53
aI43
aI52
aI36
aa(lp380
I-73
aI39
aI27
aI55
aI-42
aI86
aI-17
aa(lp381
I58
aI45
aI-26
aI-67
aI-89
aI52
aI75
aa(lp382
I34
aI87
aI79
aI-40
aI59
aI39
aI17
aasg32
(lp383
(lp384
I50
aI54
aI-10
aI-74
aI-24
aI-81
aI35
aa(lp385
I7
aI70
aI82
aI-80
aI55
aI-49
aI76
aa(lp386
I73
aI-55
aI45
aI50
aI-54
aI55
aI-49
aa(lp387
I-37
aI-100
aI-33
aI43
aI-20
aI49
aI80
aa(lp388
I73
aI45
aI44
aI-67
aI-39
aI-21
aI92
aa(lp389
I87
aI51
aI-45
aI22
aI-67
aI89
aI-66
aassbag0
(g8
g2
Ntp390
Rp391
(dp392
g12
I0
sg13
I0
sg14
(dp393
g16
(lp394
(lp395
I-74
aI-3
aI61
aI-74
aI88
aI-34
aI95
aa(lp396
I-13
aI50
aI53
aI57
aI-10
aI-78
aI-82
aa(lp397
I21
aI10
aI31
aI-62
aI-53
aI44
aI-72
aa(lp398
I58
aI84
aI64
aI80
aI69
aI-54
aI12
aa(lp399
I17
aI91
aI-46
aI-49
aI-44
aI88
aI-34
aa(lp400
I33
aI-68
aI32
aI43
aI11
aI74
aI32
aasg24
(lp401
(lp402
I13
aI63
aI77
aI-60
aI-36
aI51
aI63
aa(lp403
I2
aI-54
aI-52
aI77
aI19
aI-41
aI-69
aa(lp404
I73
aI13
aI43
aI59
aI31
aI43
aI-43
aa(lp405
I-73
aI39
aI-69
aI52
aI1
aI64
aI-13
aa(lp406
I30
aI6
aI47
aI-90
aI64
aI68
aI80
aa(lp407
I-66
aI93
aI-37
aI-45
aI28
aI35
aI17
aasg32
(lp408
(lp409
I83
aI-85
aI-7
aI58
aI74
aI8
aI13
aa(lp410
I7
aI42
aI88
aI-43
aI33
aI-32
aI53
aa(lp411
I-91
aI-77
aI51
aI50
aI-86
aI-39
aI57
aa(lp412
I57
aI31
aI-35
aI84
aI-47
aI30
aI99
aa(lp413
I-80
aI8
aI90
aI-73
aI5
aI-51
aI89
aa(lp414
I86
aI87
aI-49
aI-28
aI-46
aI-26
aI-61
aassbag0
(g8
g2
Ntp415
Rp416
(dp417
g12
I0
sg13
I0
sg14
(dp418
g16
(lp419
(lp420
I-89
aI-45
aI77
aI10
aI66
aI26
aI97
aa(lp421
I-41
aI70
aI91
aI-84
aI-4
aI-40
aI-88
aa(lp422
I21
aI25
aI54
aI78
aI-36
aI-36
aI-87
aa(lp423
I61
aI-39
aI24
aI-74
aI52
aI-36
aI27
aa(lp424
I45
aI93
aI86
aI-85
aI33
aI-64
aI99
aa(lp425
I-49
aI-36
aI21
aI-67
aI49
aI91
aI-14
aasg24
(lp426
(lp427
I37
aI84
aI-32
aI-36
aI-36
aI-24
aI55
aa(lp428
I8
aI25
aI-21
aI38
aI-73
aI-55
aI45
aa(lp429
I-90
aI-9
aI-25
aI76
aI-16
aI-10
aI-43
aa(lp430
I-63
aI21
aI62
aI35
aI-48
aI38
aI-56
aa(lp431
I-51
aI6
aI-100
aI30
aI-46
aI-52
aI-63
aa(lp432
I-66
aI-59
aI30
aI-30
aI-83
aI31
aI-40
aasg32
(lp433
(lp434
I-25
aI-53
aI40
aI60
aI-92
aI47
aI12
aa(lp435
I37
aI-52
aI64
aI-44
aI-36
aI-57
aI36
aa(lp436
I98
aI-61
aI-16
aI-78
aI-46
aI-40
aI-87
aa(lp437
I97
aI53
aI-66
aI65
aI87
aI40
aI-67
aa(lp438
I-76
aI59
aI51
aI-74
aI5
aI8
aI52
aa(lp439
I79
aI-88
aI-98
aI64
aI-41
aI-26
aI-56
aassbag0
(g8
g2
Ntp440
Rp441
(dp442
g12
I0
sg13
I0
sg14
(dp443
g16
(lp444
(lp445
I-74
aI42
aI-52
aI-74
aI88
aI26
aI-59
aa(lp446
I-13
aI50
aI53
aI57
aI-10
aI-78
aI-82
aa(lp447
I21
aI10
aI31
aI-62
aI-53
aI-9
aI-72
aa(lp448
I58
aI84
aI64
aI-74
aI69
aI-54
aI12
aa(lp449
I17
aI-25
aI-46
aI-49
aI-44
aI88
aI-34
aa(lp450
I33
aI-68
aI32
aI43
aI11
aI74
aI-14
aasg24
(lp451
(lp452
I13
aI63
aI-12
aI-60
aI16
aI-45
aI63
aa(lp453
I-97
aI-54
aI-52
aI77
aI19
aI-41
aI41
aa(lp454
I73
aI-43
aI43
aI59
aI-21
aI43
aI36
aa(lp455
I-73
aI39
aI-69
aI52
aI-73
aI64
aI-13
aa(lp456
I30
aI6
aI47
aI4
aI64
aI68
aI-28
aa(lp457
I-66
aI93
aI-37
aI-45
aI28
aI35
aI17
aasg32
(lp458
(lp459
I-10
aI-85
aI-7
aI58
aI-24
aI8
aI13
aa(lp460
I7
aI-92
aI88
aI-43
aI33
aI-32
aI53
aa(lp461
I72
aI-77
aI51
aI-85
aI-86
aI-39
aI57
aa(lp462
I57
aI-100
aI-35
aI84
aI-47
aI30
aI-67
aa(lp463
I-80
aI8
aI90
aI-73
aI-38
aI-51
aI89
aa(lp464
I86
aI-88
aI-49
aI-28
aI-46
aI-26
aI-61
aassbag0
(g8
g2
Ntp465
Rp466
(dp467
g12
I0
sg13
I0
sg14
(dp468
g16
(lp469
(lp470
I-40
aI62
aI22
aI-75
aI-49
aI21
aI37
aa(lp471
I-76
aI-34
aI14
aI24
aI-1
aI-49
aI75
aa(lp472
I-86
aI-63
aI80
aI-87
aI-70
aI-2
aI-38
aa(lp473
I-67
aI69
aI-47
aI52
aI45
aI-2
aI-55
aa(lp474
I27
aI10
aI29
aI-69
aI76
aI68
aI29
aa(lp475
I9
aI33
aI-38
aI68
aI74
aI80
aI23
aasg24
(lp476
(lp477
I77
aI-25
aI-67
aI66
aI42
aI-39
aI-45
aa(lp478
I-83
aI61
aI15
aI70
aI13
aI-60
aI72
aa(lp479
I46
aI83
aI-18
aI52
aI71
aI-78
aI-3
aa(lp480
I-30
aI40
aI20
aI-44
aI-11
aI44
aI-21
aa(lp481
I51
aI45
aI78
aI-27
aI-68
aI-98
aI-63
aa(lp482
I46
aI81
aI79
aI-34
aI87
aI41
aI-48
aasg32
(lp483
(lp484
I17
aI47
aI-25
aI-60
aI-14
aI46
aI56
aa(lp485
I36
aI99
aI23
aI57
aI-42
aI-90
aI81
aa(lp486
I74
aI-17
aI20
aI81
aI-18
aI-32
aI14
aa(lp487
I-37
aI60
aI-62
aI48
aI-12
aI69
aI47
aa(lp488
I73
aI-10
aI12
aI75
aI81
aI-29
aI95
aa(lp489
I92
aI36
aI-29
aI53
aI-65
aI80
aI-36
aassbag0
(g8
g2
Ntp490
Rp491
(dp492
g12
I0
sg13
I0
sg14
(dp493
g16
(lp494
(lp495
I-40
aI-39
aI-94
aI-75
aI-49
aI21
aI37
aa(lp496
I-76
aI-34
aI14
aI24
aI5
aI-49
aI75
aa(lp497
I-86
aI-63
aI80
aI-87
aI-70
aI20
aI-38
aa(lp498
I-67
aI69
aI16
aI52
aI45
aI7
aI-55
aa(lp499
I-99
aI-75
aI29
aI-69
aI76
aI68
aI29
aa(lp500
I-31
aI33
aI-38
aI68
aI74
aI80
aI23
aasg24
(lp501
(lp502
I77
aI-25
aI-67
aI66
aI42
aI-39
aI-45
aa(lp503
I-83
aI61
aI15
aI70
aI-88
aI-60
aI-61
aa(lp504
I46
aI83
aI-18
aI52
aI71
aI-78
aI75
aa(lp505
I47
aI40
aI20
aI-44
aI-11
aI44
aI21
aa(lp506
I51
aI45
aI-26
aI-27
aI-68
aI-98
aI-63
aa(lp507
I46
aI-13
aI-81
aI-34
aI-40
aI41
aI99
aasg32
(lp508
(lp509
I17
aI47
aI-25
aI-60
aI80
aI-81
aI56
aa(lp510
I36
aI99
aI-5
aI57
aI69
aI61
aI-84
aa(lp511
I74
aI24
aI-78
aI-70
aI-18
aI34
aI-100
aa(lp512
I-37
aI-89
aI-62
aI48
aI-12
aI-40
aI47
aa(lp513
I73
aI-10
aI12
aI75
aI81
aI-29
aI-10
aa(lp514
I-100
aI36
aI-29
aI53
aI-65
aI-69
aI85
aassbasS'game_class'
p515
c__main__
Connect4
p516
sS'fit_calced'
p517
I00
sb.