ccopy_reg
_reconstructor
p0
(cAISuite.genetics
Generation
p1
c__builtin__
object
p2
Ntp3
Rp4
(dp5
S'generation'
p6
(lp7
g0
(c__main__
C4Organism
p8
g2
Ntp9
Rp10
(dp11
S'wins'
p12
I0
sS'losses'
p13
I0
sS'weights'
p14
(dp15
S' '
p16
(lp17
(lp18
I61
aI59
aI51
aI86
aI48
aI-48
aI-10
aa(lp19
I-56
aI75
aI-63
aI71
aI-62
aI-32
aI-42
aa(lp20
I-28
aI14
aI-3
aI20
aI49
aI-68
aI33
aa(lp21
I-9
aI-99
aI69
aI-53
aI20
aI-36
aI-6
aa(lp22
I52
aI-16
aI-96
aI62
aI-49
aI32
aI10
aa(lp23
I60
aI50
aI-44
aI-74
aI-64
aI77
aI-72
aasS'O'
p24
(lp25
(lp26
I-65
aI38
aI50
aI-89
aI33
aI-57
aI1
aa(lp27
I85
aI-28
aI-48
aI-73
aI-59
aI-49
aI10
aa(lp28
I-40
aI15
aI74
aI28
aI77
aI-45
aI48
aa(lp29
I38
aI-44
aI-98
aI-96
aI-26
aI-89
aI-83
aa(lp30
I-26
aI44
aI-55
aI25
aI63
aI-43
aI35
aa(lp31
I12
aI-47
aI-71
aI-79
aI-41
aI82
aI-44
aasS'X'
p32
(lp33
(lp34
I-85
aI43
aI-90
aI90
aI38
aI-62
aI-70
aa(lp35
I66
aI-48
aI88
aI-43
aI-83
aI72
aI-61
aa(lp36
I-33
aI-36
aI51
aI45
aI18
aI82
aI-62
aa(lp37
I-55
aI6
aI30
aI-75
aI52
aI-64
aI59
aa(lp38
I60
aI-1
aI-29
aI-27
aI-51
aI-49
aI-13
aa(lp39
I-18
aI24
aI39
aI-55
aI-43
aI76
aI-27
aassbag0
(g8
g2
Ntp40
Rp41
(dp42
g12
I0
sg13
I0
sg14
(dp43
g16
(lp44
(lp45
I61
aI59
aI-79
aI86
aI48
aI-48
aI-10
aa(lp46
I-56
aI75
aI-63
aI71
aI-62
aI-32
aI-42
aa(lp47
I-28
aI14
aI-3
aI20
aI49
aI-68
aI-96
aa(lp48
I82
aI89
aI69
aI-53
aI20
aI49
aI51
aa(lp49
I52
aI29
aI-96
aI62
aI-49
aI32
aI10
aa(lp50
I60
aI50
aI75
aI-74
aI-64
aI77
aI-72
aasg24
(lp51
(lp52
I-65
aI38
aI50
aI95
aI33
aI-57
aI-38
aa(lp53
I-39
aI-28
aI-48
aI44
aI-59
aI-49
aI10
aa(lp54
I-40
aI-54
aI74
aI28
aI-20
aI-45
aI48
aa(lp55
I38
aI9
aI19
aI-96
aI-26
aI49
aI-83
aa(lp56
I-26
aI44
aI-55
aI25
aI63
aI-43
aI35
aa(lp57
I12
aI20
aI-71
aI-79
aI-41
aI82
aI-44
aasg32
(lp58
(lp59
I-85
aI43
aI-90
aI90
aI38
aI-62
aI-70
aa(lp60
I66
aI-48
aI-25
aI-43
aI-83
aI72
aI83
aa(lp61
I-33
aI100
aI51
aI45
aI18
aI-27
aI-62
aa(lp62
I-55
aI6
aI30
aI-75
aI52
aI-64
aI59
aa(lp63
I-29
aI10
aI13
aI-27
aI-51
aI-49
aI-13
aa(lp64
I9
aI24
aI39
aI61
aI-43
aI76
aI-27
aassbag0
(g8
g2
Ntp65
Rp66
(dp67
g12
I0
sg13
I0
sg14
(dp68
g16
(lp69
(lp70
I61
aI59
aI51
aI86
aI48
aI-48
aI-10
aa(lp71
I-56
aI75
aI94
aI71
aI-62
aI-32
aI-42
aa(lp72
I-28
aI14
aI42
aI20
aI49
aI-68
aI33
aa(lp73
I-9
aI-99
aI69
aI-53
aI20
aI-36
aI51
aa(lp74
I52
aI-16
aI-96
aI62
aI-49
aI32
aI-26
aa(lp75
I60
aI50
aI-44
aI18
aI13
aI77
aI-72
aasg24
(lp76
(lp77
I83
aI38
aI50
aI95
aI33
aI58
aI1
aa(lp78
I-39
aI-28
aI-48
aI44
aI-59
aI-49
aI10
aa(lp79
I-40
aI-54
aI74
aI28
aI77
aI-45
aI48
aa(lp80
I-76
aI9
aI19
aI68
aI-26
aI-89
aI-83
aa(lp81
I-26
aI44
aI-55
aI25
aI-84
aI-43
aI-24
aa(lp82
I-77
aI20
aI-71
aI-79
aI11
aI82
aI-44
aasg32
(lp83
(lp84
I-85
aI43
aI-90
aI-49
aI38
aI-62
aI32
aa(lp85
I66
aI-48
aI-25
aI-43
aI-83
aI72
aI83
aa(lp86
I-33
aI100
aI51
aI45
aI18
aI-27
aI-62
aa(lp87
I-55
aI6
aI30
aI85
aI52
aI-64
aI59
aa(lp88
I-29
aI10
aI13
aI-27
aI-51
aI-49
aI-13
aa(lp89
I9
aI24
aI39
aI61
aI-43
aI76
aI-27
aassbag0
(g8
g2
Ntp90
Rp91
(dp92
g12
I0
sg13
I0
sg14
(dp93
g16
(lp94
(lp95
I61
aI59
aI-79
aI86
aI48
aI-48
aI67
aa(lp96
I-56
aI75
aI94
aI71
aI-62
aI-32
aI-42
aa(lp97
I-28
aI14
aI-3
aI20
aI49
aI-68
aI-96
aa(lp98
I82
aI89
aI69
aI-53
aI20
aI49
aI-6
aa(lp99
I52
aI29
aI-96
aI62
aI-49
aI32
aI-26
aa(lp100
I60
aI50
aI-44
aI18
aI13
aI77
aI-72
aasg24
(lp101
(lp102
I83
aI38
aI50
aI-89
aI-93
aI72
aI1
aa(lp103
I-39
aI-28
aI-48
aI-73
aI-59
aI-49
aI10
aa(lp104
I-40
aI-54
aI74
aI28
aI-20
aI-45
aI48
aa(lp105
I-76
aI-44
aI-98
aI68
aI-26
aI-89
aI-83
aa(lp106
I-26
aI44
aI-55
aI25
aI63
aI-43
aI35
aa(lp107
I12
aI-47
aI-71
aI-79
aI-41
aI82
aI-44
aasg32
(lp108
(lp109
I-85
aI43
aI-90
aI-49
aI38
aI-62
aI-70
aa(lp110
I66
aI-48
aI88
aI-43
aI89
aI72
aI83
aa(lp111
I-33
aI-36
aI51
aI45
aI18
aI82
aI-62
aa(lp112
I-55
aI-44
aI30
aI-75
aI52
aI17
aI59
aa(lp113
I-29
aI10
aI13
aI-27
aI67
aI-49
aI-13
aa(lp114
I9
aI24
aI39
aI-55
aI-43
aI76
aI47
aassbag0
(g8
g2
Ntp115
Rp116
(dp117
g12
I0
sg13
I0
sg14
(dp118
g16
(lp119
(lp120
I61
aI59
aI-79
aI86
aI48
aI-48
aI67
aa(lp121
I-56
aI75
aI94
aI71
aI-62
aI-32
aI-42
aa(lp122
I-28
aI14
aI42
aI20
aI49
aI5
aI33
aa(lp123
I82
aI-99
aI69
aI-53
aI20
aI-36
aI-6
aa(lp124
I52
aI-16
aI73
aI62
aI-49
aI32
aI10
aa(lp125
I60
aI50
aI-44
aI18
aI-64
aI-47
aI-72
aasg24
(lp126
(lp127
I-65
aI38
aI50
aI-89
aI-93
aI58
aI-38
aa(lp128
I-39
aI-28
aI-48
aI44
aI-59
aI-49
aI10
aa(lp129
I-40
aI15
aI74
aI28
aI-20
aI-45
aI48
aa(lp130
I-76
aI-44
aI-98
aI68
aI-26
aI49
aI-83
aa(lp131
I-26
aI44
aI-55
aI25
aI-84
aI-43
aI35
aa(lp132
I12
aI-47
aI-71
aI-79
aI11
aI82
aI-44
aasg32
(lp133
(lp134
I-85
aI43
aI-90
aI90
aI38
aI-62
aI32
aa(lp135
I66
aI-48
aI88
aI-43
aI89
aI72
aI-61
aa(lp136
I-33
aI-36
aI51
aI45
aI-77
aI-27
aI-62
aa(lp137
I-55
aI6
aI30
aI-75
aI52
aI-64
aI59
aa(lp138
I-29
aI10
aI-29
aI-27
aI67
aI-49
aI-13
aa(lp139
I9
aI24
aI39
aI61
aI-43
aI76
aI-27
aassbag0
(g8
g2
Ntp140
Rp141
(dp142
g12
I0
sg13
I0
sg14
(dp143
g16
(lp144
(lp145
I61
aI59
aI-79
aI86
aI48
aI-48
aI67
aa(lp146
I-56
aI75
aI94
aI71
aI-62
aI-32
aI-42
aa(lp147
I-28
aI14
aI-3
aI20
aI49
aI5
aI33
aa(lp148
I82
aI89
aI69
aI-53
aI20
aI-36
aI51
aa(lp149
I52
aI29
aI-96
aI62
aI-49
aI32
aI-26
aa(lp150
I60
aI50
aI75
aI18
aI-64
aI77
aI-72
aasg24
(lp151
(lp152
I-65
aI38
aI50
aI-89
aI-93
aI58
aI-38
aa(lp153
I-39
aI-28
aI-48
aI-73
aI-59
aI-49
aI10
aa(lp154
I-40
aI-54
aI74
aI28
aI-20
aI-45
aI48
aa(lp155
I38
aI9
aI19
aI68
aI-26
aI49
aI-83
aa(lp156
I-26
aI44
aI-55
aI25
aI63
aI-43
aI35
aa(lp157
I-77
aI-47
aI-71
aI-79
aI11
aI82
aI-44
aasg32
(lp158
(lp159
I12
aI43
aI-90
aI-49
aI38
aI-62
aI-70
aa(lp160
I66
aI-48
aI88
aI-43
aI-83
aI72
aI-61
aa(lp161
I37
aI-36
aI51
aI45
aI-77
aI82
aI-62
aa(lp162
I-55
aI6
aI30
aI-75
aI-1
aI17
aI59
aa(lp163
I60
aI-1
aI13
aI-27
aI67
aI-49
aI-13
aa(lp164
I9
aI24
aI39
aI61
aI-43
aI76
aI-27
aassbag0
(g8
g2
Ntp165
Rp166
(dp167
g12
I0
sg13
I0
sg14
(dp168
g16
(lp169
(lp170
I61
aI59
aI51
aI86
aI48
aI-48
aI67
aa(lp171
I-56
aI-5
aI-63
aI71
aI-62
aI-32
aI-42
aa(lp172
I-28
aI14
aI42
aI20
aI49
aI-68
aI-96
aa(lp173
I-9
aI89
aI69
aI-53
aI20
aI49
aI-6
aa(lp174
I52
aI-16
aI-96
aI62
aI-49
aI32
aI-26
aa(lp175
I60
aI50
aI75
aI18
aI-64
aI-47
aI-72
aasg24
(lp176
(lp177
I83
aI38
aI50
aI95
aI33
aI-57
aI-38
aa(lp178
I-39
aI-28
aI-48
aI-73
aI-59
aI-49
aI10
aa(lp179
I-40
aI15
aI74
aI28
aI-20
aI-45
aI48
aa(lp180
I38
aI9
aI19
aI-96
aI-26
aI49
aI-83
aa(lp181
I-26
aI44
aI-55
aI25
aI-84
aI-43
aI-24
aa(lp182
I-77
aI-47
aI-71
aI-79
aI11
aI82
aI-44
aasg32
(lp183
(lp184
I12
aI43
aI-90
aI-49
aI38
aI-62
aI32
aa(lp185
I66
aI-48
aI-25
aI-43
aI89
aI72
aI83
aa(lp186
I37
aI-36
aI51
aI45
aI18
aI82
aI-62
aa(lp187
I-55
aI-44
aI30
aI85
aI52
aI-64
aI59
aa(lp188
I-29
aI-1
aI13
aI-27
aI67
aI-49
aI-13
aa(lp189
I9
aI24
aI39
aI-55
aI-43
aI76
aI-27
aassbag0
(g8
g2
Ntp190
Rp191
(dp192
g12
I0
sg13
I0
sg14
(dp193
g16
(lp194
(lp195
I61
aI59
aI-79
aI86
aI48
aI-48
aI67
aa(lp196
I-56
aI-5
aI94
aI71
aI-62
aI-32
aI-42
aa(lp197
I-28
aI14
aI-3
aI20
aI49
aI5
aI33
aa(lp198
I-9
aI89
aI69
aI-53
aI20
aI-36
aI-6
aa(lp199
I52
aI-16
aI73
aI62
aI-49
aI32
aI10
aa(lp200
I60
aI50
aI75
aI-74
aI-64
aI-47
aI-72
aasg24
(lp201
(lp202
I83
aI38
aI50
aI95
aI33
aI58
aI-38
aa(lp203
I-39
aI-28
aI-48
aI-73
aI-59
aI-49
aI10
aa(lp204
I-40
aI15
aI74
aI28
aI77
aI-45
aI48
aa(lp205
I-76
aI9
aI19
aI-96
aI-26
aI49
aI-83
aa(lp206
I-26
aI44
aI-55
aI25
aI63
aI-43
aI-24
aa(lp207
I12
aI-47
aI-71
aI-79
aI-41
aI82
aI-44
aasg32
(lp208
(lp209
I-85
aI43
aI-90
aI90
aI38
aI-62
aI32
aa(lp210
I66
aI-48
aI88
aI-43
aI-83
aI72
aI-61
aa(lp211
I-33
aI100
aI51
aI45
aI-77
aI-27
aI-62
aa(lp212
I85
aI-44
aI30
aI-75
aI52
aI-64
aI59
aa(lp213
I60
aI-1
aI-29
aI-27
aI67
aI-49
aI-13
aa(lp214
I-18
aI24
aI39
aI-55
aI-43
aI76
aI-27
aassbag0
(g8
g2
Ntp215
Rp216
(dp217
g12
I0
sg13
I0
sg14
(dp218
g16
(lp219
(lp220
I61
aI59
aI-79
aI86
aI48
aI-48
aI67
aa(lp221
I-56
aI-5
aI94
aI71
aI-62
aI-32
aI-42
aa(lp222
I-28
aI14
aI-3
aI20
aI49
aI5
aI-96
aa(lp223
I82
aI-99
aI69
aI-53
aI20
aI49
aI-6
aa(lp224
I52
aI29
aI73
aI62
aI-49
aI32
aI10
aa(lp225
I60
aI50
aI75
aI-74
aI-64
aI77
aI-72
aasg24
(lp226
(lp227
I-65
aI38
aI50
aI-89
aI33
aI58
aI1
aa(lp228
I-39
aI-28
aI-48
aI44
aI-59
aI-49
aI10
aa(lp229
I-40
aI-54
aI74
aI28
aI-20
aI-45
aI48
aa(lp230
I38
aI-44
aI19
aI68
aI-26
aI49
aI-83
aa(lp231
I-26
aI44
aI-55
aI25
aI-84
aI-43
aI35
aa(lp232
I12
aI-47
aI-71
aI-79
aI11
aI82
aI-44
aasg32
(lp233
(lp234
I12
aI43
aI-90
aI-49
aI38
aI-62
aI32
aa(lp235
I66
aI-48
aI-25
aI-43
aI89
aI72
aI-61
aa(lp236
I37
aI-36
aI51
aI45
aI18
aI-27
aI-62
aa(lp237
I-55
aI-44
aI30
aI85
aI52
aI17
aI59
aa(lp238
I-29
aI-1
aI-29
aI-27
aI67
aI-49
aI-13
aa(lp239
I9
aI24
aI39
aI61
aI-43
aI76
aI47
aassbag0
(g8
g2
Ntp240
Rp241
(dp242
g12
I0
sg13
I0
sg14
(dp243
g16
(lp244
(lp245
I61
aI59
aI51
aI86
aI48
aI-48
aI-10
aa(lp246
I-56
aI-5
aI-63
aI71
aI-62
aI-32
aI-42
aa(lp247
I-28
aI14
aI-3
aI20
aI49
aI5
aI-96
aa(lp248
I-9
aI-99
aI69
aI-53
aI20
aI49
aI51
aa(lp249
I52
aI-16
aI73
aI62
aI-16
aI32
aI10
aa(lp250
I60
aI50
aI75
aI18
aI-64
aI77
aI-72
aasg24
(lp251
(lp252
I83
aI38
aI50
aI-89
aI33
aI58
aI-38
aa(lp253
I85
aI-28
aI-48
aI-73
aI-59
aI-49
aI10
aa(lp254
I-40
aI-54
aI74
aI28
aI77
aI-45
aI48
aa(lp255
I-76
aI-44
aI19
aI68
aI-26
aI49
aI-83
aa(lp256
I-26
aI44
aI-55
aI25
aI-84
aI-43
aI-24
aa(lp257
I-77
aI-47
aI-71
aI-79
aI11
aI82
aI-44
aasg32
(lp258
(lp259
I12
aI43
aI-90
aI90
aI38
aI-62
aI32
aa(lp260
I66
aI-48
aI-25
aI-43
aI89
aI72
aI83
aa(lp261
I-33
aI-36
aI51
aI45
aI-77
aI82
aI-62
aa(lp262
I85
aI-44
aI30
aI85
aI-1
aI-64
aI59
aa(lp263
I60
aI10
aI-29
aI-27
aI67
aI-49
aI-13
aa(lp264
I-18
aI24
aI39
aI61
aI-43
aI76
aI-27
aassbag0
(g8
g2
Ntp265
Rp266
(dp267
g12
I0
sg13
I0
sg14
(dp268
g16
(lp269
(lp270
I61
aI59
aI-79
aI86
aI48
aI-48
aI67
aa(lp271
I-56
aI75
aI-63
aI71
aI-62
aI-32
aI-42
aa(lp272
I-28
aI14
aI-3
aI20
aI49
aI5
aI33
aa(lp273
I-9
aI-99
aI69
aI-53
aI-11
aI49
aI51
aa(lp274
I52
aI29
aI-96
aI62
aI-49
aI32
aI10
aa(lp275
I60
aI50
aI-44
aI-74
aI-64
aI77
aI-72
aasg24
(lp276
(lp277
I-65
aI38
aI50
aI95
aI33
aI58
aI1
aa(lp278
I-39
aI-28
aI-48
aI-73
aI-59
aI-49
aI10
aa(lp279
I-40
aI-54
aI74
aI28
aI-20
aI-45
aI48
aa(lp280
I-76
aI9
aI19
aI-96
aI-26
aI49
aI-83
aa(lp281
I-26
aI44
aI-55
aI25
aI63
aI-43
aI-24
aa(lp282
I12
aI20
aI-71
aI-79
aI11
aI82
aI-44
aasg32
(lp283
(lp284
I-85
aI43
aI-90
aI-49
aI38
aI-62
aI-70
aa(lp285
I66
aI-48
aI-25
aI-43
aI-83
aI72
aI83
aa(lp286
I-33
aI-36
aI51
aI45
aI18
aI-27
aI-62
aa(lp287
I-55
aI-44
aI30
aI85
aI-1
aI17
aI59
aa(lp288
I-29
aI-1
aI-29
aI-27
aI67
aI-49
aI-13
aa(lp289
I-18
aI24
aI39
aI61
aI-43
aI76
aI47
aassbag0
(g8
g2
Ntp290
Rp291
(dp292
g12
I0
sg13
I0
sg14
(dp293
g16
(lp294
(lp295
I61
aI59
aI51
aI86
aI48
aI-48
aI-10
aa(lp296
I-56
aI75
aI94
aI71
aI-62
aI-32
aI-42
aa(lp297
I-28
aI14
aI42
aI20
aI49
aI5
aI33
aa(lp298
I82
aI89
aI69
aI-53
aI20
aI-36
aI51
aa(lp299
I52
aI-16
aI73
aI62
aI-49
aI32
aI-26
aa(lp300
I60
aI50
aI75
aI-74
aI13
aI77
aI-72
aasg24
(lp301
(lp302
I83
aI38
aI50
aI95
aI33
aI58
aI1
aa(lp303
I-39
aI-28
aI-48
aI-73
aI-59
aI-49
aI10
aa(lp304
I-40
aI15
aI74
aI28
aI-20
aI-45
aI48
aa(lp305
I38
aI-44
aI19
aI-96
aI-26
aI-89
aI-83
aa(lp306
I-26
aI44
aI-55
aI25
aI63
aI-43
aI35
aa(lp307
I-77
aI20
aI-71
aI-79
aI11
aI82
aI-44
aasg32
(lp308
(lp309
I-85
aI43
aI-90
aI90
aI38
aI-62
aI32
aa(lp310
I66
aI-48
aI88
aI-43
aI-83
aI72
aI-61
aa(lp311
I-33
aI100
aI51
aI45
aI18
aI82
aI-62
aa(lp312
I85
aI-44
aI30
aI-75
aI-1
aI17
aI59
aa(lp313
I-29
aI-1
aI13
aI-27
aI67
aI-49
aI-13
aa(lp314
I-18
aI24
aI39
aI-55
aI-43
aI76
aI47
aassbag0
(g8
g2
Ntp315
Rp316
(dp317
g12
I0
sg13
I0
sg14
(dp318
g16
(lp319
(lp320
I61
aI59
aI51
aI86
aI48
aI-48
aI67
aa(lp321
I-56
aI-5
aI94
aI71
aI-62
aI-32
aI-42
aa(lp322
I-28
aI14
aI-3
aI20
aI49
aI5
aI-96
aa(lp323
I-9
aI89
aI69
aI-53
aI20
aI-36
aI51
aa(lp324
I52
aI29
aI-96
aI62
aI-49
aI32
aI-26
aa(lp325
I60
aI50
aI75
aI-74
aI13
aI77
aI-72
aasg24
(lp326
(lp327
I-65
aI38
aI50
aI95
aI-93
aI-57
aI1
aa(lp328
I-39
aI-28
aI-48
aI-73
aI-59
aI-49
aI10
aa(lp329
I-40
aI15
aI74
aI28
aI-20
aI-45
aI48
aa(lp330
I-76
aI-44
aI19
aI68
aI-26
aI-89
aI-83
aa(lp331
I-26
aI44
aI-55
aI25
aI-84
aI-43
aI-24
aa(lp332
I12
aI20
aI-71
aI-79
aI11
aI82
aI-44
aasg32
(lp333
(lp334
I-85
aI43
aI-90
aI90
aI38
aI-62
aI-70
aa(lp335
I66
aI-48
aI88
aI-43
aI-83
aI72
aI83
aa(lp336
I37
aI-36
aI51
aI45
aI-77
aI-27
aI-62
aa(lp337
I85
aI-44
aI30
aI85
aI52
aI17
aI59
aa(lp338
I-29
aI-1
aI-29
aI-27
aI67
aI-49
aI-13
aa(lp339
I-18
aI24
aI39
aI61
aI-43
aI76
aI47
aassbag0
(g8
g2
Ntp340
Rp341
(dp342
g12
I0
sg13
I0
sg14
(dp343
g16
(lp344
(lp345
I61
aI59
aI51
aI86
aI48
aI-48
aI67
aa(lp346
I-56
aI75
aI94
aI71
aI-62
aI-32
aI-42
aa(lp347
I-28
aI14
aI42
aI20
aI49
aI5
aI-96
aa(lp348
I82
aI-99
aI69
aI-53
aI20
aI49
aI-6
aa(lp349
I52
aI29
aI-96
aI62
aI-49
aI32
aI-26
aa(lp350
I60
aI50
aI75
aI18
aI13
aI77
aI-72
aasg24
(lp351
(lp352
I-65
aI38
aI50
aI95
aI33
aI58
aI-38
aa(lp353
I85
aI-28
aI-48
aI44
aI-59
aI-49
aI10
aa(lp354
I-40
aI15
aI74
aI28
aI-20
aI-45
aI48
aa(lp355
I-76
aI-44
aI-98
aI68
aI-26
aI-89
aI-83
aa(lp356
I-26
aI44
aI-55
aI25
aI-84
aI-43
aI-24
aa(lp357
I-77
aI-47
aI-71
aI-79
aI-41
aI82
aI-44
aasg32
(lp358
(lp359
I-85
aI43
aI-90
aI-49
aI38
aI-62
aI32
aa(lp360
I66
aI-48
aI-25
aI-43
aI-83
aI72
aI83
aa(lp361
I37
aI100
aI51
aI45
aI-77
aI82
aI-62
aa(lp362
I-55
aI6
aI30
aI-75
aI52
aI-64
aI59
aa(lp363
I-29
aI10
aI-29
aI-27
aI67
aI-49
aI-13
aa(lp364
I-18
aI24
aI39
aI-55
aI-43
aI76
aI47
aassbag0
(g8
g2
Ntp365
Rp366
(dp367
g12
I0
sg13
I0
sg14
(dp368
g16
(lp369
(lp370
I61
aI59
aI-79
aI86
aI48
aI-48
aI67
aa(lp371
I-56
aI75
aI-63
aI71
aI-62
aI-32
aI-42
aa(lp372
I-28
aI14
aI-3
aI20
aI49
aI5
aI-96
aa(lp373
I-9
aI-99
aI69
aI-53
aI20
aI-36
aI51
aa(lp374
I52
aI-16
aI73
aI62
aI-49
aI32
aI-26
aa(lp375
I60
aI50
aI75
aI-74
aI-64
aI77
aI-72
aasg24
(lp376
(lp377
I-65
aI38
aI50
aI-89
aI33
aI58
aI1
aa(lp378
I85
aI-28
aI-48
aI44
aI-59
aI-49
aI10
aa(lp379
I-40
aI-54
aI74
aI28
aI77
aI-45
aI48
aa(lp380
I38
aI-44
aI-98
aI-96
aI-26
aI-89
aI-83
aa(lp381
I-26
aI44
aI-55
aI25
aI63
aI-43
aI-24
aa(lp382
I-77
aI20
aI-71
aI-79
aI-41
aI82
aI-44
aasg32
(lp383
(lp384
I12
aI43
aI-90
aI-49
aI38
aI-62
aI-70
aa(lp385
I66
aI-48
aI88
aI-43
aI-83
aI72
aI83
aa(lp386
I-33
aI100
aI51
aI45
aI-77
aI82
aI-62
aa(lp387
I85
aI-44
aI30
aI-75
aI-1
aI17
aI59
aa(lp388
I-29
aI10
aI13
aI-27
aI67
aI-49
aI-13
aa(lp389
I-18
aI24
aI39
aI61
aI-43
aI76
aI-27
aassbag0
(g8
g2
Ntp390
Rp391
(dp392
g12
I0
sg13
I0
sg14
(dp393
g16
(lp394
(lp395
I61
aI59
aI-79
aI86
aI48
aI-48
aI-10
aa(lp396
I-56
aI-5
aI-63
aI71
aI-62
aI-32
aI-42
aa(lp397
I-28
aI14
aI-3
aI20
aI49
aI5
aI33
aa(lp398
I-9
aI89
aI69
aI-53
aI20
aI-36
aI51
aa(lp399
I52
aI29
aI-96
aI62
aI-49
aI32
aI10
aa(lp400
I60
aI50
aI-44
aI18
aI13
aI-47
aI-72
aasg24
(lp401
(lp402
I83
aI38
aI50
aI-89
aI-93
aI-57
aI-38
aa(lp403
I85
aI-28
aI-48
aI44
aI-59
aI-49
aI10
aa(lp404
I-40
aI15
aI74
aI28
aI77
aI-45
aI48
aa(lp405
I38
aI-44
aI19
aI-96
aI-26
aI49
aI-83
aa(lp406
I-26
aI44
aI-55
aI25
aI-84
aI-43
aI35
aa(lp407
I-77
aI-47
aI-71
aI-79
aI-41
aI82
aI-44
aasg32
(lp408
(lp409
I12
aI43
aI-90
aI-49
aI38
aI-62
aI32
aa(lp410
I66
aI-48
aI88
aI-43
aI-83
aI72
aI83
aa(lp411
I-33
aI-36
aI51
aI45
aI18
aI-27
aI-62
aa(lp412
I-55
aI6
aI30
aI85
aI-1
aI17
aI59
aa(lp413
I60
aI10
aI13
aI-27
aI-51
aI-49
aI-13
aa(lp414
I-18
aI24
aI39
aI61
aI-43
aI76
aI-27
aassbag0
(g8
g2
Ntp415
Rp416
(dp417
g12
I0
sg13
I0
sg14
(dp418
g16
(lp419
(lp420
I61
aI59
aI-79
aI86
aI48
aI-48
aI-10
aa(lp421
I-56
aI75
aI-63
aI71
aI-62
aI-32
aI-42
aa(lp422
I-28
aI14
aI42
aI20
aI49
aI5
aI-96
aa(lp423
I82
aI-99
aI69
aI-53
aI20
aI-36
aI51
aa(lp424
I52
aI-16
aI73
aI62
aI-49
aI32
aI10
aa(lp425
I60
aI50
aI75
aI18
aI13
aI-47
aI-72
aasg24
(lp426
(lp427
I83
aI38
aI50
aI95
aI33
aI58
aI1
aa(lp428
I85
aI-28
aI-48
aI44
aI-59
aI-49
aI10
aa(lp429
I-40
aI-54
aI74
aI28
aI77
aI-45
aI48
aa(lp430
I-76
aI-44
aI19
aI-96
aI-26
aI-89
aI-83
aa(lp431
I-26
aI44
aI-55
aI25
aI63
aI-43
aI35
aa(lp432
I-77
aI20
aI-71
aI-79
aI11
aI82
aI-44
aasg32
(lp433
(lp434
I-85
aI43
aI-90
aI90
aI38
aI-62
aI-70
aa(lp435
I66
aI-48
aI-25
aI-43
aI-83
aI72
aI-61
aa(lp436
I37
aI-36
aI51
aI45
aI18
aI-27
aI-62
aa(lp437
I85
aI6
aI30
aI85
aI-1
aI-64
aI59
aa(lp438
I-29
aI10
aI-29
aI-27
aI67
aI-49
aI-13
aa(lp439
I9
aI24
aI39
aI-55
aI-43
aI76
aI47
aassbag0
(g8
g2
Ntp440
Rp441
(dp442
g12
I0
sg13
I0
sg14
(dp443
g16
(lp444
(lp445
I61
aI59
aI-79
aI86
aI48
aI-48
aI-10
aa(lp446
I-56
aI75
aI94
aI71
aI-62
aI-32
aI-42
aa(lp447
I-28
aI14
aI-3
aI20
aI49
aI-68
aI-96
aa(lp448
I82
aI-99
aI69
aI-53
aI20
aI-36
aI51
aa(lp449
I52
aI29
aI-96
aI62
aI-49
aI32
aI-26
aa(lp450
I60
aI50
aI75
aI18
aI13
aI-47
aI-72
aasg24
(lp451
(lp452
I83
aI38
aI50
aI95
aI33
aI-57
aI-38
aa(lp453
I85
aI-28
aI-48
aI44
aI-59
aI-49
aI10
aa(lp454
I-40
aI-54
aI74
aI28
aI-20
aI-45
aI48
aa(lp455
I-76
aI9
aI-98
aI-96
aI-26
aI-89
aI-83
aa(lp456
I-26
aI44
aI-55
aI25
aI63
aI-43
aI35
aa(lp457
I12
aI20
aI-71
aI-79
aI-41
aI82
aI-44
aasg32
(lp458
(lp459
I-85
aI43
aI-90
aI90
aI38
aI-62
aI32
aa(lp460
I66
aI-48
aI88
aI-43
aI-83
aI72
aI-61
aa(lp461
I-33
aI-36
aI51
aI45
aI-77
aI-27
aI-62
aa(lp462
I85
aI6
aI30
aI-75
aI-1
aI-64
aI59
aa(lp463
I60
aI-1
aI13
aI-27
aI-51
aI-49
aI-13
aa(lp464
I9
aI24
aI39
aI-55
aI-43
aI76
aI-27
aassbag0
(g8
g2
Ntp465
Rp466
(dp467
g12
I0
sg13
I0
sg14
(dp468
g16
(lp469
(lp470
I61
aI59
aI51
aI86
aI48
aI-48
aI-10
aa(lp471
I-56
aI-5
aI-63
aI71
aI-62
aI-32
aI-42
aa(lp472
I-28
aI14
aI-3
aI20
aI49
aI5
aI-96
aa(lp473
I82
aI-99
aI69
aI-53
aI20
aI-36
aI51
aa(lp474
I52
aI29
aI-96
aI62
aI-49
aI32
aI-26
aa(lp475
I60
aI50
aI-44
aI18
aI13
aI77
aI-72
aasg24
(lp476
(lp477
I-65
aI38
aI50
aI95
aI-93
aI-57
aI1
aa(lp478
I-39
aI-28
aI-48
aI-73
aI-59
aI-49
aI10
aa(lp479
I-40
aI15
aI74
aI28
aI77
aI-45
aI48
aa(lp480
I38
aI-44
aI-98
aI68
aI-26
aI49
aI-83
aa(lp481
I-26
aI44
aI-55
aI25
aI-84
aI-43
aI35
aa(lp482
I12
aI-47
aI-71
aI-79
aI-41
aI82
aI-44
aasg32
(lp483
(lp484
I-85
aI43
aI-90
aI-49
aI38
aI-62
aI-70
aa(lp485
I66
aI-48
aI-25
aI-43
aI89
aI72
aI83
aa(lp486
I37
aI100
aI51
aI45
aI-77
aI82
aI-62
aa(lp487
I-55
aI6
aI30
aI-75
aI52
aI-64
aI59
aa(lp488
I60
aI10
aI13
aI-27
aI-51
aI-49
aI-13
aa(lp489
I9
aI24
aI39
aI61
aI-43
aI76
aI47
aassbag0
(g8
g2
Ntp490
Rp491
(dp492
g12
I0
sg13
I0
sg14
(dp493
g16
(lp494
(lp495
I61
aI59
aI-79
aI86
aI48
aI-48
aI-10
aa(lp496
I-56
aI-5
aI-63
aI71
aI-62
aI-32
aI-42
aa(lp497
I-28
aI14
aI-3
aI20
aI49
aI-68
aI33
aa(lp498
I82
aI-99
aI69
aI-53
aI20
aI-36
aI-6
aa(lp499
I52
aI-16
aI-96
aI62
aI-49
aI32
aI10
aa(lp500
I60
aI50
aI-44
aI-74
aI-64
aI-47
aI-72
aasg24
(lp501
(lp502
I-65
aI38
aI50
aI-89
aI-93
aI58
aI1
aa(lp503
I-39
aI-28
aI-48
aI-73
aI-59
aI-49
aI10
aa(lp504
I-40
aI15
aI74
aI28
aI77
aI-45
aI48
aa(lp505
I38
aI-44
aI-98
aI68
aI-26
aI-89
aI-83
aa(lp506
I-26
aI44
aI-55
aI25
aI-84
aI-43
aI35
aa(lp507
I-77
aI20
aI-71
aI-79
aI-41
aI82
aI-44
aasg32
(lp508
(lp509
I-85
aI43
aI-90
aI90
aI38
aI-62
aI32
aa(lp510
I66
aI-48
aI-25
aI-43
aI-83
aI72
aI83
aa(lp511
I-33
aI100
aI51
aI45
aI18
aI-27
aI-62
aa(lp512
I85
aI-44
aI30
aI85
aI-1
aI-64
aI59
aa(lp513
I60
aI10
aI13
aI-27
aI67
aI-49
aI-13
aa(lp514
I9
aI24
aI39
aI-55
aI-43
aI76
aI47
aassbag0
(g8
g2
Ntp515
Rp516
(dp517
g12
I0
sg13
I0
sg14
(dp518
g16
(lp519
(lp520
I61
aI59
aI-13
aI86
aI48
aI-48
aI67
aa(lp521
I-56
aI-5
aI94
aI71
aI-62
aI-32
aI-42
aa(lp522
I-28
aI14
aI42
aI20
aI49
aI-68
aI-96
aa(lp523
I82
aI-99
aI69
aI-53
aI20
aI-36
aI-6
aa(lp524
I52
aI29
aI-96
aI62
aI-49
aI32
aI-26
aa(lp525
I60
aI50
aI-44
aI18
aI13
aI77
aI-72
aasg24
(lp526
(lp527
I83
aI38
aI50
aI95
aI33
aI58
aI-38
aa(lp528
I85
aI-28
aI-48
aI44
aI-59
aI-49
aI10
aa(lp529
I-40
aI15
aI74
aI28
aI-20
aI-45
aI48
aa(lp530
I-76
aI-44
aI19
aI68
aI-26
aI-89
aI-83
aa(lp531
I-26
aI44
aI-55
aI25
aI-84
aI-43
aI-24
aa(lp532
I12
aI20
aI-71
aI-79
aI-41
aI82
aI-44
aasg32
(lp533
(lp534
I-85
aI43
aI-90
aI90
aI38
aI-62
aI32
aa(lp535
I66
aI-48
aI88
aI-43
aI-83
aI72
aI-61
aa(lp536
I-33
aI-36
aI51
aI45
aI18
aI-27
aI-62
aa(lp537
I-55
aI-44
aI30
aI-75
aI52
aI-64
aI59
aa(lp538
I-29
aI10
aI13
aI-27
aI67
aI-49
aI-13
aa(lp539
I9
aI24
aI39
aI61
aI-43
aI76
aI47
aassbag0
(g8
g2
Ntp540
Rp541
(dp542
g12
I0
sg13
I0
sg14
(dp543
g16
(lp544
(lp545
I61
aI59
aI51
aI86
aI48
aI-48
aI67
aa(lp546
I-56
aI-5
aI-63
aI71
aI-62
aI-32
aI-42
aa(lp547
I-28
aI14
aI42
aI20
aI49
aI-68
aI33
aa(lp548
I82
aI89
aI69
aI-53
aI20
aI-36
aI-6
aa(lp549
I52
aI-16
aI73
aI62
aI-49
aI32
aI10
aa(lp550
I60
aI50
aI-44
aI-74
aI-64
aI-47
aI-72
aasg24
(lp551
(lp552
I-65
aI38
aI50
aI-89
aI-93
aI-57
aI1
aa(lp553
I85
aI-28
aI-48
aI-73
aI-59
aI-49
aI10
aa(lp554
I-40
aI-54
aI74
aI28
aI77
aI-45
aI48
aa(lp555
I38
aI9
aI-98
aI68
aI-26
aI-89
aI-83
aa(lp556
I-26
aI44
aI-55
aI25
aI63
aI-43
aI-24
aa(lp557
I12
aI-47
aI-71
aI-79
aI11
aI82
aI-44
aasg32
(lp558
(lp559
I-85
aI43
aI-90
aI-49
aI38
aI-62
aI-70
aa(lp560
I66
aI-48
aI-25
aI-43
aI-83
aI72
aI-61
aa(lp561
I37
aI-36
aI51
aI45
aI18
aI82
aI-62
aa(lp562
I-55
aI-44
aI30
aI85
aI-1
aI-64
aI59
aa(lp563
I60
aI10
aI-29
aI-27
aI-51
aI-49
aI-13
aa(lp564
I-18
aI24
aI39
aI61
aI-43
aI76
aI47
aassbag0
(g8
g2
Ntp565
Rp566
(dp567
g12
I0
sg13
I0
sg14
(dp568
g16
(lp569
(lp570
I61
aI59
aI51
aI86
aI48
aI-48
aI-10
aa(lp571
I-56
aI75
aI-63
aI71
aI-62
aI-32
aI-42
aa(lp572
I-28
aI14
aI-3
aI20
aI49
aI-68
aI33
aa(lp573
I82
aI-99
aI69
aI-53
aI20
aI-36
aI51
aa(lp574
I52
aI-16
aI73
aI62
aI-49
aI32
aI10
aa(lp575
I60
aI50
aI75
aI-74
aI13
aI-47
aI-72
aasg24
(lp576
(lp577
I-65
aI38
aI50
aI-89
aI33
aI-57
aI1
aa(lp578
I85
aI-28
aI-48
aI44
aI-59
aI-49
aI10
aa(lp579
I-40
aI-54
aI74
aI28
aI-20
aI-45
aI48
aa(lp580
I38
aI9
aI19
aI-96
aI-26
aI49
aI-83
aa(lp581
I-26
aI44
aI-55
aI25
aI63
aI-43
aI-24
aa(lp582
I12
aI20
aI-71
aI-79
aI11
aI82
aI-44
aasg32
(lp583
(lp584
I-85
aI43
aI-90
aI90
aI38
aI-62
aI32
aa(lp585
I66
aI-48
aI88
aI-43
aI89
aI72
aI83
aa(lp586
I37
aI-36
aI51
aI45
aI-77
aI-27
aI-62
aa(lp587
I85
aI-44
aI30
aI-75
aI-1
aI17
aI59
aa(lp588
I-29
aI-1
aI-29
aI-27
aI-51
aI-49
aI-13
aa(lp589
I-18
aI24
aI39
aI61
aI-43
aI76
aI47
aassbag0
(g8
g2
Ntp590
Rp591
(dp592
g12
I0
sg13
I0
sg14
(dp593
g16
(lp594
(lp595
I61
aI59
aI51
aI86
aI48
aI-48
aI67
aa(lp596
I-56
aI-5
aI-63
aI71
aI-62
aI-32
aI-42
aa(lp597
I-28
aI14
aI-3
aI20
aI49
aI5
aI-96
aa(lp598
I82
aI89
aI69
aI-53
aI20
aI49
aI51
aa(lp599
I52
aI-16
aI73
aI62
aI-49
aI32
aI10
aa(lp600
I60
aI50
aI75
aI18
aI13
aI-47
aI-72
aasg24
(lp601
(lp602
I-65
aI38
aI50
aI-89
aI33
aI-57
aI-38
aa(lp603
I-39
aI-28
aI-48
aI-73
aI-59
aI-49
aI10
aa(lp604
I-40
aI-54
aI74
aI28
aI77
aI-45
aI48
aa(lp605
I-76
aI9
aI19
aI-96
aI-26
aI-89
aI-83
aa(lp606
I-26
aI44
aI-55
aI25
aI-84
aI-43
aI-24
aa(lp607
I12
aI-47
aI-71
aI-79
aI11
aI82
aI-44
aasg32
(lp608
(lp609
I-85
aI43
aI-90
aI-49
aI38
aI-62
aI32
aa(lp610
I66
aI-48
aI88
aI-43
aI89
aI72
aI-61
aa(lp611
I37
aI100
aI51
aI45
aI18
aI-27
aI-62
aa(lp612
I-55
aI6
aI30
aI85
aI-1
aI17
aI59
aa(lp613
I60
aI10
aI13
aI-27
aI67
aI-49
aI-13
aa(lp614
I-18
aI24
aI39
aI61
aI-43
aI76
aI47
aassbag0
(g8
g2
Ntp615
Rp616
(dp617
g12
I0
sg13
I0
sg14
(dp618
g16
(lp619
(lp620
I61
aI59
aI-79
aI86
aI48
aI-48
aI-10
aa(lp621
I-56
aI75
aI-63
aI71
aI-62
aI-32
aI-42
aa(lp622
I-28
aI14
aI-3
aI20
aI49
aI-68
aI33
aa(lp623
I-9
aI-99
aI69
aI-53
aI20
aI-36
aI-6
aa(lp624
I52
aI29
aI-96
aI62
aI-49
aI32
aI-26
aa(lp625
I60
aI50
aI-44
aI18
aI-64
aI77
aI-72
aasg24
(lp626
(lp627
I-65
aI38
aI50
aI95
aI33
aI-57
aI-38
aa(lp628
I85
aI-28
aI-48
aI-73
aI-59
aI-49
aI10
aa(lp629
I-40
aI-54
aI74
aI28
aI77
aI-45
aI48
aa(lp630
I38
aI9
aI-98
aI-96
aI-26
aI-89
aI-83
aa(lp631
I-26
aI44
aI-55
aI25
aI-84
aI-43
aI-24
aa(lp632
I12
aI-47
aI-71
aI-79
aI11
aI82
aI-44
aasg32
(lp633
(lp634
I12
aI43
aI-90
aI90
aI38
aI-62
aI32
aa(lp635
I66
aI-28
aI-25
aI-43
aI89
aI72
aI83
aa(lp636
I37
aI100
aI51
aI45
aI18
aI-27
aI-62
aa(lp637
I85
aI6
aI30
aI-75
aI-1
aI-64
aI59
aa(lp638
I60
aI10
aI13
aI-27
aI-51
aI-49
aI-13
aa(lp639
I9
aI24
aI39
aI-55
aI-43
aI76
aI47
aassbag0
(g8
g2
Ntp640
Rp641
(dp642
g12
I0
sg13
I0
sg14
(dp643
g16
(lp644
(lp645
I61
aI59
aI51
aI86
aI48
aI-48
aI67
aa(lp646
I-56
aI75
aI-63
aI71
aI-62
aI-32
aI-42
aa(lp647
I-28
aI14
aI42
aI20
aI49
aI-68
aI-96
aa(lp648
I-9
aI-99
aI69
aI-53
aI20
aI-36
aI-6
aa(lp649
I52
aI-16
aI73
aI62
aI-49
aI32
aI-26
aa(lp650
I60
aI50
aI-44
aI18
aI-64
aI77
aI-72
aasg24
(lp651
(lp652
I-65
aI38
aI50
aI-89
aI-93
aI58
aI-38
aa(lp653
I85
aI-28
aI-48
aI-73
aI-59
aI-49
aI10
aa(lp654
I-40
aI15
aI74
aI28
aI77
aI-45
aI48
aa(lp655
I38
aI-44
aI-98
aI68
aI-26
aI49
aI-83
aa(lp656
I-26
aI44
aI-55
aI25
aI63
aI-43
aI-24
aa(lp657
I-77
aI20
aI-71
aI-79
aI11
aI82
aI-44
aasg32
(lp658
(lp659
I-85
aI43
aI-90
aI-49
aI38
aI-62
aI32
aa(lp660
I66
aI-48
aI88
aI-43
aI89
aI72
aI-61
aa(lp661
I-33
aI-36
aI51
aI45
aI-77
aI-27
aI-62
aa(lp662
I85
aI-44
aI30
aI85
aI-1
aI17
aI59
aa(lp663
I-29
aI10
aI-29
aI-27
aI-51
aI-49
aI-13
aa(lp664
I9
aI24
aI39
aI-55
aI-43
aI76
aI-27
aassbag0
(g8
g2
Ntp665
Rp666
(dp667
g12
I0
sg13
I0
sg14
(dp668
g16
(lp669
(lp670
I61
aI59
aI-79
aI86
aI48
aI-48
aI-10
aa(lp671
I-56
aI75
aI-63
aI71
aI-62
aI-32
aI-42
aa(lp672
I-28
aI14
aI-3
aI20
aI49
aI5
aI33
aa(lp673
I-9
aI-99
aI69
aI-53
aI20
aI-36
aI-6
aa(lp674
I52
aI-16
aI-96
aI62
aI-49
aI32
aI10
aa(lp675
I60
aI50
aI-44
aI-74
aI13
aI-47
aI-72
aasg24
(lp676
(lp677
I83
aI38
aI50
aI95
aI-93
aI58
aI-38
aa(lp678
I85
aI-28
aI-48
aI44
aI-59
aI-49
aI10
aa(lp679
I-40
aI-54
aI74
aI28
aI-20
aI-45
aI48
aa(lp680
I38
aI-44
aI19
aI68
aI-26
aI-89
aI-83
aa(lp681
I-26
aI44
aI-55
aI25
aI-84
aI-43
aI-24
aa(lp682
I12
aI20
aI-71
aI-79
aI-41
aI82
aI-44
aasg32
(lp683
(lp684
I-85
aI43
aI-90
aI-49
aI38
aI-62
aI32
aa(lp685
I66
aI-48
aI-25
aI-43
aI-83
aI72
aI83
aa(lp686
I37
aI-36
aI51
aI45
aI18
aI82
aI-62
aa(lp687
I85
aI-44
aI30
aI85
aI-1
aI-64
aI59
aa(lp688
I60
aI10
aI13
aI-27
aI67
aI-49
aI-13
aa(lp689
I-18
aI24
aI39
aI61
aI-43
aI76
aI-27
aassbag0
(g8
g2
Ntp690
Rp691
(dp692
g12
I0
sg13
I0
sg14
(dp693
g16
(lp694
(lp695
I61
aI59
aI-79
aI86
aI48
aI-48
aI-10
aa(lp696
I-56
aI-5
aI94
aI71
aI-62
aI-32
aI-42
aa(lp697
I-28
aI14
aI42
aI20
aI49
aI-68
aI33
aa(lp698
I-9
aI-99
aI69
aI-53
aI20
aI49
aI-6
aa(lp699
I52
aI-16
aI73
aI62
aI-49
aI32
aI10
aa(lp700
I60
aI50
aI-44
aI-74
aI-64
aI-47
aI-72
aasg24
(lp701
(lp702
I-65
aI38
aI50
aI95
aI-93
aI58
aI-38
aa(lp703
I85
aI-28
aI-48
aI44
aI-59
aI-49
aI10
aa(lp704
I-40
aI-54
aI74
aI28
aI77
aI-45
aI48
aa(lp705
I38
aI9
aI-98
aI68
aI-26
aI-89
aI-83
aa(lp706
I-26
aI44
aI-55
aI25
aI63
aI-43
aI35
aa(lp707
I12
aI-47
aI-71
aI-79
aI11
aI82
aI-44
aasg32
(lp708
(lp709
I-85
aI43
aI-90
aI-49
aI38
aI-62
aI32
aa(lp710
I66
aI-48
aI88
aI-43
aI-83
aI72
aI-61
aa(lp711
I-33
aI100
aI51
aI45
aI18
aI82
aI-62
aa(lp712
I85
aI6
aI30
aI85
aI-1
aI17
aI59
aa(lp713
I60
aI10
aI13
aI-27
aI67
aI-49
aI-13
aa(lp714
I-18
aI24
aI39
aI-55
aI-43
aI76
aI47
aassbag0
(g8
g2
Ntp715
Rp716
(dp717
g12
I0
sg13
I0
sg14
(dp718
g16
(lp719
(lp720
I61
aI59
aI51
aI86
aI48
aI-48
aI-10
aa(lp721
I-56
aI75
aI94
aI71
aI-62
aI-32
aI-42
aa(lp722
I-28
aI14
aI-3
aI20
aI49
aI-68
aI33
aa(lp723
I82
aI89
aI69
aI-53
aI20
aI49
aI51
aa(lp724
I52
aI29
aI73
aI62
aI-49
aI32
aI-26
aa(lp725
I60
aI50
aI75
aI18
aI13
aI-47
aI-72
aasg24
(lp726
(lp727
I83
aI38
aI50
aI95
aI33
aI58
aI1
aa(lp728
I85
aI-28
aI-48
aI-73
aI-59
aI-49
aI10
aa(lp729
I-40
aI-54
aI74
aI28
aI-20
aI-45
aI48
aa(lp730
I38
aI-44
aI19
aI-96
aI-26
aI49
aI-83
aa(lp731
I-26
aI44
aI-55
aI25
aI63
aI-43
aI35
aa(lp732
I12
aI20
aI-71
aI-79
aI11
aI82
aI-44
aasg32
(lp733
(lp734
I-85
aI43
aI-90
aI-49
aI38
aI-62
aI32
aa(lp735
I66
aI-48
aI-25
aI-43
aI-83
aI72
aI-61
aa(lp736
I-33
aI-36
aI51
aI45
aI18
aI-27
aI-62
aa(lp737
I-55
aI-44
aI30
aI-75
aI52
aI-64
aI59
aa(lp738
I60
aI10
aI13
aI-27
aI-51
aI-49
aI-13
aa(lp739
I-18
aI24
aI39
aI-55
aI-43
aI76
aI-27
aassbag0
(g8
g2
Ntp740
Rp741
(dp742
g12
I0
sg13
I0
sg14
(dp743
g16
(lp744
(lp745
I61
aI59
aI51
aI86
aI48
aI-48
aI67
aa(lp746
I-56
aI-5
aI-63
aI71
aI-62
aI-32
aI-42
aa(lp747
I-28
aI14
aI-3
aI20
aI49
aI5
aI-96
aa(lp748
I82
aI89
aI69
aI-53
aI20
aI49
aI-6
aa(lp749
I52
aI29
aI73
aI62
aI-49
aI32
aI-26
aa(lp750
I60
aI50
aI75
aI-74
aI13
aI-47
aI-72
aasg24
(lp751
(lp752
I-65
aI38
aI50
aI95
aI33
aI-57
aI1
aa(lp753
I-39
aI-28
aI-48
aI44
aI-59
aI-49
aI10
aa(lp754
I-40
aI-54
aI74
aI28
aI77
aI-45
aI48
aa(lp755
I38
aI-44
aI19
aI68
aI-26
aI49
aI-83
aa(lp756
I-26
aI44
aI-55
aI25
aI-84
aI-43
aI-24
aa(lp757
I-77
aI-47
aI-71
aI-79
aI-41
aI82
aI-44
aasg32
(lp758
(lp759
I12
aI43
aI-90
aI90
aI38
aI-62
aI32
aa(lp760
I66
aI-48
aI88
aI-43
aI89
aI72
aI83
aa(lp761
I37
aI-36
aI51
aI45
aI18
aI82
aI-62
aa(lp762
I85
aI-44
aI30
aI85
aI52
aI-64
aI59
aa(lp763
I-29
aI-1
aI-29
aI-27
aI67
aI-49
aI-13
aa(lp764
I9
aI24
aI39
aI61
aI-43
aI76
aI47
aassbag0
(g8
g2
Ntp765
Rp766
(dp767
g12
I0
sg13
I0
sg14
(dp768
g16
(lp769
(lp770
I61
aI59
aI-79
aI86
aI48
aI-48
aI67
aa(lp771
I-56
aI75
aI94
aI71
aI-62
aI-32
aI-42
aa(lp772
I-28
aI14
aI-3
aI20
aI49
aI5
aI-96
aa(lp773
I82
aI89
aI69
aI-53
aI20
aI49
aI51
aa(lp774
I52
aI-16
aI-96
aI62
aI-49
aI32
aI-26
aa(lp775
I60
aI50
aI-44
aI18
aI-64
aI77
aI-72
aasg24
(lp776
(lp777
I83
aI38
aI50
aI-89
aI-93
aI-57
aI-38
aa(lp778
I-39
aI-28
aI-48
aI-73
aI-59
aI-49
aI10
aa(lp779
I-40
aI15
aI74
aI28
aI77
aI-45
aI48
aa(lp780
I38
aI9
aI-98
aI-96
aI-26
aI49
aI-83
aa(lp781
I-26
aI44
aI-55
aI25
aI-84
aI-43
aI35
aa(lp782
I-77
aI20
aI-71
aI-79
aI11
aI82
aI-44
aasg32
(lp783
(lp784
I-85
aI43
aI-90
aI-49
aI38
aI-62
aI32
aa(lp785
I66
aI-48
aI-25
aI-43
aI-83
aI72
aI-61
aa(lp786
I-33
aI-36
aI51
aI45
aI18
aI82
aI-62
aa(lp787
I-55
aI6
aI30
aI85
aI-1
aI-64
aI59
aa(lp788
I60
aI-1
aI-29
aI-27
aI-51
aI-49
aI-13
aa(lp789
I-18
aI24
aI39
aI-55
aI-43
aI76
aI-27
aassbag0
(g8
g2
Ntp790
Rp791
(dp792
g12
I0
sg13
I0
sg14
(dp793
g16
(lp794
(lp795
I61
aI59
aI51
aI86
aI48
aI-48
aI67
aa(lp796
I-56
aI75
aI94
aI71
aI-62
aI-32
aI-42
aa(lp797
I-28
aI14
aI-3
aI20
aI49
aI-68
aI-96
aa(lp798
I82
aI89
aI69
aI-53
aI20
aI49
aI-6
aa(lp799
I52
aI-16
aI-96
aI62
aI-49
aI32
aI-26
aa(lp800
I60
aI50
aI75
aI18
aI-64
aI77
aI-72
aasg24
(lp801
(lp802
I83
aI38
aI50
aI-89
aI33
aI58
aI1
aa(lp803
I-39
aI-28
aI-48
aI-73
aI-59
aI-49
aI10
aa(lp804
I-40
aI-54
aI74
aI28
aI-20
aI-45
aI48
aa(lp805
I-76
aI-44
aI-98
aI68
aI-26
aI-89
aI-83
aa(lp806
I-26
aI44
aI-55
aI25
aI-84
aI-43
aI35
aa(lp807
I12
aI20
aI-71
aI-79
aI11
aI82
aI-44
aasg32
(lp808
(lp809
I12
aI43
aI-90
aI-49
aI38
aI-62
aI32
aa(lp810
I66
aI-48
aI88
aI-43
aI89
aI72
aI-61
aa(lp811
I37
aI-36
aI51
aI45
aI-77
aI82
aI-62
aa(lp812
I-55
aI6
aI30
aI-75
aI-1
aI-64
aI59
aa(lp813
I60
aI10
aI13
aI-27
aI-51
aI-49
aI-13
aa(lp814
I-18
aI24
aI39
aI61
aI-43
aI76
aI-27
aassbag0
(g8
g2
Ntp815
Rp816
(dp817
g12
I0
sg13
I0
sg14
(dp818
g16
(lp819
(lp820
I61
aI59
aI-79
aI86
aI48
aI-48
aI-10
aa(lp821
I-56
aI75
aI-63
aI47
aI-62
aI-32
aI-42
aa(lp822
I-28
aI14
aI42
aI20
aI49
aI5
aI-96
aa(lp823
I82
aI-99
aI69
aI-53
aI20
aI49
aI-6
aa(lp824
I52
aI29
aI-96
aI62
aI-49
aI32
aI-26
aa(lp825
I60
aI50
aI-44
aI-74
aI13
aI77
aI-72
aasg24
(lp826
(lp827
I-65
aI38
aI50
aI-89
aI-93
aI58
aI1
aa(lp828
I85
aI-28
aI-48
aI-73
aI-59
aI-49
aI10
aa(lp829
I-40
aI-54
aI74
aI28
aI77
aI-45
aI48
aa(lp830
I38
aI-44
aI19
aI68
aI-26
aI49
aI-83
aa(lp831
I-26
aI44
aI-55
aI25
aI63
aI-43
aI-24
aa(lp832
I-77
aI-47
aI-71
aI-79
aI-41
aI82
aI-44
aasg32
(lp833
(lp834
I-85
aI43
aI-90
aI-49
aI38
aI-62
aI32
aa(lp835
I66
aI-48
aI-25
aI-43
aI-83
aI72
aI83
aa(lp836
I-33
aI100
aI51
aI45
aI-77
aI-27
aI-62
aa(lp837
I85
aI-44
aI30
aI-75
aI-1
aI17
aI59
aa(lp838
I-29
aI-1
aI13
aI-27
aI-51
aI-49
aI-13
aa(lp839
I-18
aI24
aI39
aI-55
aI-43
aI76
aI-27
aassbag0
(g8
g2
Ntp840
Rp841
(dp842
g12
I0
sg13
I0
sg14
(dp843
g16
(lp844
(lp845
I61
aI59
aI-79
aI86
aI48
aI-48
aI67
aa(lp846
I-56
aI-5
aI-63
aI71
aI-62
aI-32
aI-42
aa(lp847
I-28
aI14
aI-3
aI20
aI49
aI5
aI33
aa(lp848
I82
aI-99
aI69
aI-53
aI20
aI49
aI-6
aa(lp849
I52
aI-16
aI-96
aI62
aI-49
aI32
aI10
aa(lp850
I60
aI50
aI-44
aI-74
aI13
aI77
aI-72
aasg24
(lp851
(lp852
I83
aI38
aI50
aI-89
aI33
aI58
aI-38
aa(lp853
I-39
aI-28
aI-48
aI-73
aI-59
aI-49
aI10
aa(lp854
I-40
aI15
aI74
aI28
aI77
aI-45
aI48
aa(lp855
I38
aI9
aI-98
aI68
aI-26
aI-89
aI-83
aa(lp856
I-26
aI44
aI-55
aI25
aI63
aI-43
aI-24
aa(lp857
I-77
aI-47
aI-71
aI-79
aI-41
aI82
aI-44
aasg32
(lp858
(lp859
I-85
aI43
aI-90
aI90
aI38
aI-62
aI-70
aa(lp860
I66
aI-48
aI88
aI-43
aI89
aI72
aI-61
aa(lp861
I-33
aI100
aI51
aI45
aI-77
aI82
aI-62
aa(lp862
I-55
aI-44
aI30
aI85
aI52
aI17
aI59
aa(lp863
I60
aI-1
aI-29
aI-27
aI67
aI-49
aI-13
aa(lp864
I9
aI24
aI39
aI61
aI-43
aI76
aI-27
aassbag0
(g8
g2
Ntp865
Rp866
(dp867
g12
I0
sg13
I0
sg14
(dp868
g16
(lp869
(lp870
I61
aI59
aI-79
aI86
aI48
aI-48
aI67
aa(lp871
I-56
aI-5
aI-63
aI71
aI-62
aI-32
aI-42
aa(lp872
I-28
aI14
aI42
aI20
aI49
aI-68
aI33
aa(lp873
I82
aI-99
aI69
aI-53
aI20
aI49
aI51
aa(lp874
I52
aI29
aI-96
aI62
aI-49
aI32
aI-26
aa(lp875
I-35
aI50
aI-44
aI-74
aI13
aI-47
aI-72
aasg24
(lp876
(lp877
I83
aI38
aI50
aI95
aI33
aI58
aI-38
aa(lp878
I85
aI-28
aI-48
aI-73
aI-59
aI-49
aI10
aa(lp879
I-40
aI-54
aI74
aI28
aI-20
aI-45
aI48
aa(lp880
I38
aI9
aI19
aI68
aI-26
aI-89
aI-83
aa(lp881
I-26
aI44
aI-55
aI25
aI63
aI-43
aI-24
aa(lp882
I12
aI20
aI-71
aI-79
aI11
aI82
aI-44
aasg32
(lp883
(lp884
I12
aI43
aI-90
aI-49
aI38
aI-62
aI32
aa(lp885
I66
aI-48
aI-25
aI-43
aI89
aI72
aI-61
aa(lp886
I37
aI100
aI51
aI45
aI18
aI-27
aI-62
aa(lp887
I-55
aI-44
aI30
aI-75
aI52
aI17
aI59
aa(lp888
I60
aI-1
aI-29
aI-27
aI-51
aI-49
aI-13
aa(lp889
I-18
aI24
aI39
aI61
aI-43
aI76
aI47
aassbag0
(g8
g2
Ntp890
Rp891
(dp892
g12
I0
sg13
I0
sg14
(dp893
g16
(lp894
(lp895
I61
aI59
aI51
aI86
aI48
aI-48
aI67
aa(lp896
I-56
aI75
aI94
aI71
aI-62
aI-32
aI-42
aa(lp897
I-28
aI14
aI42
aI20
aI49
aI5
aI33
aa(lp898
I-9
aI89
aI69
aI-53
aI20
aI49
aI-6
aa(lp899
I52
aI29
aI73
aI62
aI-49
aI32
aI-26
aa(lp900
I60
aI50
aI-44
aI18
aI-64
aI-47
aI-72
aasg24
(lp901
(lp902
I-65
aI38
aI50
aI-89
aI33
aI-57
aI-38
aa(lp903
I-39
aI-28
aI-48
aI-73
aI-59
aI-49
aI10
aa(lp904
I-40
aI-54
aI74
aI28
aI77
aI-45
aI48
aa(lp905
I-76
aI9
aI19
aI-96
aI-26
aI-89
aI-83
aa(lp906
I-26
aI44
aI-55
aI25
aI-84
aI-43
aI-24
aa(lp907
I-77
aI20
aI-71
aI-79
aI11
aI82
aI-44
aasg32
(lp908
(lp909
I12
aI43
aI-90
aI90
aI38
aI-62
aI32
aa(lp910
I66
aI-48
aI-25
aI-43
aI-83
aI72
aI-61
aa(lp911
I-33
aI-36
aI51
aI45
aI18
aI82
aI-62
aa(lp912
I-55
aI6
aI30
aI-75
aI52
aI-64
aI59
aa(lp913
I60
aI10
aI-29
aI-27
aI-51
aI-49
aI-13
aa(lp914
I9
aI24
aI39
aI-55
aI-43
aI76
aI-27
aassbag0
(g8
g2
Ntp915
Rp916
(dp917
g12
I0
sg13
I0
sg14
(dp918
g16
(lp919
(lp920
I61
aI59
aI-79
aI86
aI48
aI-48
aI67
aa(lp921
I-56
aI75
aI94
aI71
aI-62
aI-32
aI-42
aa(lp922
I-28
aI14
aI42
aI20
aI49
aI-68
aI-96
aa(lp923
I82
aI-99
aI69
aI-53
aI20
aI49
aI-6
aa(lp924
I52
aI29
aI-96
aI62
aI-49
aI32
aI10
aa(lp925
I60
aI50
aI-44
aI18
aI-64
aI77
aI-72
aasg24
(lp926
(lp927
I83
aI38
aI50
aI-89
aI33
aI-57
aI-38
aa(lp928
I-39
aI-28
aI-48
aI44
aI-59
aI-49
aI10
aa(lp929
I-40
aI-54
aI74
aI28
aI-20
aI-45
aI48
aa(lp930
I38
aI9
aI-98
aI68
aI-26
aI49
aI-83
aa(lp931
I-26
aI44
aI-55
aI25
aI63
aI-43
aI35
aa(lp932
I12
aI20
aI-71
aI-79
aI11
aI82
aI-44
aasg32
(lp933
(lp934
I-85
aI43
aI-90
aI90
aI38
aI-62
aI32
aa(lp935
I66
aI-48
aI-25
aI-43
aI-83
aI72
aI83
aa(lp936
I-33
aI-36
aI51
aI45
aI-77
aI-27
aI-62
aa(lp937
I-55
aI-44
aI30
aI-75
aI-1
aI17
aI59
aa(lp938
I-29
aI10
aI13
aI-27
aI67
aI-49
aI-13
aa(lp939
I9
aI24
aI39
aI-55
aI-43
aI76
aI47
aassbag0
(g8
g2
Ntp940
Rp941
(dp942
g12
I0
sg13
I0
sg14
(dp943
g16
(lp944
(lp945
I61
aI59
aI-79
aI86
aI48
aI-48
aI-10
aa(lp946
I-56
aI-5
aI94
aI71
aI-62
aI-32
aI-42
aa(lp947
I-28
aI14
aI42
aI20
aI49
aI5
aI-96
aa(lp948
I82
aI89
aI69
aI-53
aI20
aI49
aI51
aa(lp949
I52
aI-16
aI-96
aI62
aI-49
aI32
aI-26
aa(lp950
I60
aI50
aI75
aI-74
aI-64
aI77
aI-72
aasg24
(lp951
(lp952
I83
aI38
aI50
aI-89
aI33
aI58
aI-38
aa(lp953
I85
aI-28
aI-48
aI44
aI-59
aI-49
aI10
aa(lp954
I-40
aI-54
aI74
aI28
aI-20
aI-45
aI48
aa(lp955
I-76
aI9
aI-98
aI68
aI-26
aI49
aI-83
aa(lp956
I-26
aI44
aI-55
aI25
aI63
aI-43
aI-24
aa(lp957
I-77
aI-47
aI-71
aI-79
aI11
aI82
aI-44
aasg32
(lp958
(lp959
I-85
aI43
aI-90
aI90
aI38
aI-62
aI-70
aa(lp960
I66
aI-48
aI88
aI-43
aI-83
aI72
aI-61
aa(lp961
I37
aI100
aI51
aI45
aI18
aI82
aI-62
aa(lp962
I-55
aI-44
aI30
aI85
aI-1
aI-64
aI59
aa(lp963
I60
aI-1
aI13
aI-27
aI67
aI-49
aI-13
aa(lp964
I-18
aI24
aI39
aI61
aI-43
aI76
aI47
aassbag0
(g8
g2
Ntp965
Rp966
(dp967
g12
I0
sg13
I0
sg14
(dp968
g16
(lp969
(lp970
I61
aI59
aI51
aI86
aI48
aI-48
aI67
aa(lp971
I-56
aI75
aI-63
aI71
aI-62
aI-32
aI-42
aa(lp972
I-28
aI14
aI42
aI20
aI49
aI-68
aI33
aa(lp973
I-9
aI89
aI69
aI-53
aI20
aI-36
aI-6
aa(lp974
I52
aI29
aI73
aI62
aI-49
aI32
aI10
aa(lp975
I60
aI50
aI-44
aI18
aI13
aI77
aI-72
aasg24
(lp976
(lp977
I83
aI38
aI50
aI-89
aI33
aI-57
aI-38
aa(lp978
I85
aI-28
aI-48
aI44
aI-59
aI-49
aI10
aa(lp979
I-40
aI15
aI74
aI28
aI77
aI-45
aI48
aa(lp980
I-76
aI-44
aI-98
aI68
aI-26
aI-89
aI-83
aa(lp981
I-26
aI44
aI-55
aI25
aI-84
aI-43
aI-24
aa(lp982
I-77
aI-47
aI-71
aI-79
aI-41
aI82
aI-44
aasg32
(lp983
(lp984
I12
aI43
aI-90
aI-49
aI38
aI-62
aI32
aa(lp985
I66
aI-48
aI-25
aI-43
aI-83
aI72
aI-61
aa(lp986
I-33
aI100
aI51
aI45
aI-77
aI82
aI-62
aa(lp987
I-55
aI6
aI30
aI85
aI52
aI-64
aI59
aa(lp988
I60
aI-1
aI13
aI-27
aI-51
aI-49
aI-13
aa(lp989
I9
aI24
aI39
aI61
aI-43
aI76
aI-27
aassbag0
(g8
g2
Ntp990
Rp991
(dp992
g12
I0
sg13
I0
sg14
(dp993
g16
(lp994
(lp995
I61
aI59
aI-79
aI86
aI48
aI-48
aI67
aa(lp996
I-56
aI75
aI94
aI71
aI-62
aI-32
aI-42
aa(lp997
I-28
aI14
aI-3
aI20
aI49
aI5
aI-96
aa(lp998
I82
aI-72
aI69
aI-53
aI20
aI49
aI-6
aa(lp999
I52
aI-16
aI-96
aI62
aI-49
aI32
aI10
aa(lp1000
I60
aI50
aI-44
aI18
aI-64
aI77
aI-72
aasg24
(lp1001
(lp1002
I-65
aI38
aI50
aI95
aI33
aI-57
aI1
aa(lp1003
I-39
aI-28
aI-48
aI-73
aI-59
aI-49
aI10
aa(lp1004
I-40
aI15
aI74
aI28
aI-20
aI-45
aI48
aa(lp1005
I-76
aI9
aI-98
aI-96
aI-26
aI49
aI-83
aa(lp1006
I-26
aI44
aI-55
aI25
aI-84
aI-43
aI35
aa(lp1007
I-77
aI-47
aI-71
aI-79
aI-41
aI82
aI-44
aasg32
(lp1008
(lp1009
I12
aI43
aI-90
aI-49
aI38
aI-62
aI-70
aa(lp1010
I66
aI-48
aI-25
aI-43
aI-83
aI72
aI-61
aa(lp1011
I37
aI-36
aI51
aI45
aI18
aI82
aI-62
aa(lp1012
I85
aI6
aI30
aI85
aI52
aI-64
aI59
aa(lp1013
I-29
aI-1
aI-29
aI-27
aI67
aI-49
aI-13
aa(lp1014
I-18
aI24
aI39
aI61
aI-43
aI76
aI47
aassbag0
(g8
g2
Ntp1015
Rp1016
(dp1017
g12
I0
sg13
I0
sg14
(dp1018
g16
(lp1019
(lp1020
I61
aI59
aI-79
aI86
aI48
aI-48
aI67
aa(lp1021
I-56
aI-5
aI94
aI71
aI-62
aI-32
aI-42
aa(lp1022
I-28
aI14
aI-3
aI20
aI49
aI-68
aI33
aa(lp1023
I-9
aI-99
aI69
aI-53
aI20
aI-36
aI-6
aa(lp1024
I52
aI-16
aI-96
aI62
aI-49
aI32
aI10
aa(lp1025
I60
aI50
aI-44
aI18
aI-64
aI77
aI-72
aasg24
(lp1026
(lp1027
I83
aI38
aI50
aI95
aI-93
aI58
aI1
aa(lp1028
I85
aI-28
aI-48
aI44
aI-59
aI-49
aI10
aa(lp1029
I-40
aI-54
aI74
aI28
aI-20
aI-45
aI48
aa(lp1030
I-76
aI9
aI19
aI68
aI-26
aI-89
aI-83
aa(lp1031
I-26
aI44
aI-55
aI25
aI63
aI-43
aI-24
aa(lp1032
I12
aI20
aI-71
aI-79
aI-41
aI82
aI-44
aasg32
(lp1033
(lp1034
I-85
aI43
aI-90
aI-49
aI38
aI-62
aI-70
aa(lp1035
I66
aI-48
aI88
aI-43
aI-83
aI72
aI-61
aa(lp1036
I-33
aI100
aI51
aI45
aI-77
aI-27
aI-62
aa(lp1037
I-55
aI6
aI30
aI85
aI52
aI-64
aI59
aa(lp1038
I60
aI-1
aI13
aI-27
aI-51
aI-49
aI-13
aa(lp1039
I-18
aI24
aI39
aI-55
aI-43
aI76
aI-27
aassbag0
(g8
g2
Ntp1040
Rp1041
(dp1042
g12
I0
sg13
I0
sg14
(dp1043
g16
(lp1044
(lp1045
I61
aI59
aI51
aI86
aI48
aI-48
aI-10
aa(lp1046
I-56
aI75
aI-63
aI71
aI-62
aI-32
aI-42
aa(lp1047
I-28
aI14
aI-3
aI20
aI49
aI-68
aI-96
aa(lp1048
I-9
aI-99
aI69
aI-53
aI20
aI49
aI-6
aa(lp1049
I52
aI-16
aI73
aI62
aI-49
aI32
aI-26
aa(lp1050
I60
aI50
aI75
aI-74
aI13
aI77
aI-72
aasg24
(lp1051
(lp1052
I83
aI38
aI50
aI95
aI-93
aI-57
aI-38
aa(lp1053
I-39
aI-28
aI-48
aI44
aI-59
aI-49
aI10
aa(lp1054
I-40
aI-54
aI74
aI28
aI77
aI-45
aI48
aa(lp1055
I-76
aI9
aI19
aI-96
aI-26
aI-89
aI-83
aa(lp1056
I-26
aI44
aI-55
aI25
aI63
aI-43
aI-24
aa(lp1057
I12
aI-47
aI-71
aI-79
aI-41
aI82
aI-44
aasg32
(lp1058
(lp1059
I-85
aI43
aI-90
aI-49
aI38
aI-62
aI-70
aa(lp1060
I66
aI-48
aI88
aI-43
aI-83
aI72
aI-61
aa(lp1061
I-33
aI100
aI51
aI45
aI18
aI-27
aI-62
aa(lp1062
I85
aI6
aI30
aI85
aI52
aI-64
aI59
aa(lp1063
I-29
aI10
aI13
aI-27
aI67
aI-49
aI-13
aa(lp1064
I9
aI24
aI39
aI61
aI-43
aI76
aI47
aassbag0
(g8
g2
Ntp1065
Rp1066
(dp1067
g12
I0
sg13
I0
sg14
(dp1068
g16
(lp1069
(lp1070
I61
aI59
aI-79
aI86
aI48
aI-48
aI-10
aa(lp1071
I-56
aI-5
aI94
aI71
aI-62
aI-32
aI-42
aa(lp1072
I-28
aI14
aI-3
aI20
aI49
aI5
aI-96
aa(lp1073
I82
aI-99
aI69
aI-53
aI20
aI49
aI-6
aa(lp1074
I52
aI-16
aI-96
aI62
aI-49
aI32
aI-26
aa(lp1075
I60
aI50
aI-44
aI18
aI-64
aI-47
aI-72
aasg24
(lp1076
(lp1077
I83
aI38
aI50
aI95
aI33
aI-57
aI1
aa(lp1078
I-39
aI-28
aI-48
aI44
aI-59
aI-49
aI10
aa(lp1079
I-40
aI-54
aI74
aI28
aI-20
aI-45
aI48
aa(lp1080
I-76
aI-44
aI-98
aI-96
aI-26
aI49
aI-83
aa(lp1081
I-26
aI44
aI-78
aI25
aI-84
aI-43
aI-24
aa(lp1082
I-77
aI-47
aI-71
aI-79
aI11
aI82
aI-44
aasg32
(lp1083
(lp1084
I12
aI43
aI-90
aI-49
aI38
aI-62
aI-70
aa(lp1085
I66
aI-48
aI-25
aI-43
aI-83
aI72
aI83
aa(lp1086
I37
aI100
aI51
aI45
aI-77
aI82
aI-62
aa(lp1087
I-55
aI-44
aI30
aI-75
aI52
aI-64
aI59
aa(lp1088
I60
aI-1
aI-29
aI-27
aI-51
aI-49
aI-13
aa(lp1089
I9
aI24
aI39
aI-55
aI-43
aI76
aI47
aassbag0
(g8
g2
Ntp1090
Rp1091
(dp1092
g12
I0
sg13
I0
sg14
(dp1093
g16
(lp1094
(lp1095
I61
aI59
aI-79
aI86
aI48
aI-48
aI67
aa(lp1096
I-56
aI-5
aI-63
aI71
aI-62
aI-32
aI-42
aa(lp1097
I-28
aI14
aI42
aI20
aI49
aI5
aI33
aa(lp1098
I82
aI-99
aI69
aI-53
aI20
aI49
aI51
aa(lp1099
I52
aI-16
aI-96
aI62
aI-49
aI32
aI-26
aa(lp1100
I60
aI50
aI75
aI18
aI-64
aI77
aI-72
aasg24
(lp1101
(lp1102
I83
aI38
aI50
aI-89
aI33
aI-57
aI1
aa(lp1103
I85
aI-28
aI-48
aI-73
aI-59
aI-49
aI10
aa(lp1104
I-40
aI15
aI74
aI28
aI77
aI-45
aI48
aa(lp1105
I-76
aI-44
aI19
aI-96
aI-26
aI-89
aI-83
aa(lp1106
I-26
aI44
aI-55
aI25
aI63
aI-43
aI-24
aa(lp1107
I12
aI20
aI-71
aI-79
aI11
aI82
aI-44
aasg32
(lp1108
(lp1109
I-85
aI43
aI-90
aI-49
aI38
aI-62
aI-70
aa(lp1110
I66
aI-48
aI88
aI-43
aI89
aI72
aI-61
aa(lp1111
I-33
aI100
aI51
aI45
aI18
aI-27
aI-62
aa(lp1112
I85
aI6
aI30
aI-75
aI-1
aI-64
aI59
aa(lp1113
I-29
aI-1
aI-29
aI-27
aI67
aI-49
aI-13
aa(lp1114
I-18
aI24
aI39
aI61
aI-43
aI76
aI-27
aassbag0
(g8
g2
Ntp1115
Rp1116
(dp1117
g12
I0
sg13
I0
sg14
(dp1118
g16
(lp1119
(lp1120
I61
aI59
aI51
aI86
aI48
aI-48
aI67
aa(lp1121
I-56
aI-5
aI-63
aI71
aI-62
aI-32
aI-42
aa(lp1122
I-28
aI14
aI42
aI20
aI49
aI5
aI33
aa(lp1123
I82
aI-99
aI69
aI-53
aI20
aI49
aI51
aa(lp1124
I52
aI29
aI-96
aI62
aI-49
aI32
aI10
aa(lp1125
I60
aI50
aI75
aI-74
aI13
aI-47
aI-72
aasg24
(lp1126
(lp1127
I-65
aI38
aI50
aI95
aI33
aI-57
aI1
aa(lp1128
I-39
aI-28
aI-48
aI44
aI-59
aI-49
aI10
aa(lp1129
I-40
aI-54
aI74
aI28
aI-20
aI-45
aI48
aa(lp1130
I38
aI9
aI-98
aI68
aI-26
aI-89
aI-83
aa(lp1131
I-26
aI44
aI-55
aI25
aI63
aI-43
aI35
aa(lp1132
I12
aI20
aI-71
aI-79
aI11
aI82
aI-44
aasg32
(lp1133
(lp1134
I-85
aI43
aI-90
aI90
aI38
aI-62
aI-70
aa(lp1135
I66
aI-48
aI-25
aI-43
aI-83
aI72
aI83
aa(lp1136
I37
aI-36
aI51
aI45
aI18
aI-27
aI-62
aa(lp1137
I85
aI-44
aI30
aI85
aI52
aI17
aI59
aa(lp1138
I-29
aI10
aI-29
aI-27
aI-51
aI-49
aI-13
aa(lp1139
I-18
aI24
aI39
aI61
aI-43
aI76
aI-27
aassbag0
(g8
g2
Ntp1140
Rp1141
(dp1142
g12
I0
sg13
I0
sg14
(dp1143
g16
(lp1144
(lp1145
I61
aI59
aI51
aI86
aI48
aI-48
aI67
aa(lp1146
I-56
aI75
aI94
aI71
aI-62
aI-32
aI-42
aa(lp1147
I-28
aI14
aI42
aI20
aI49
aI5
aI-96
aa(lp1148
I82
aI89
aI69
aI-53
aI20
aI49
aI-6
aa(lp1149
I52
aI-16
aI73
aI62
aI-49
aI32
aI10
aa(lp1150
I60
aI50
aI75
aI18
aI-64
aI77
aI-72
aasg24
(lp1151
(lp1152
I83
aI38
aI50
aI-89
aI33
aI58
aI-38
aa(lp1153
I-39
aI-28
aI-48
aI44
aI-59
aI-49
aI10
aa(lp1154
I-40
aI-54
aI74
aI28
aI77
aI-45
aI48
aa(lp1155
I-76
aI-44
aI19
aI-96
aI-26
aI-89
aI-83
aa(lp1156
I-26
aI44
aI-55
aI25
aI-84
aI-43
aI35
aa(lp1157
I12
aI-47
aI-71
aI-79
aI11
aI82
aI-44
aasg32
(lp1158
(lp1159
I12
aI43
aI-90
aI-49
aI38
aI-62
aI-70
aa(lp1160
I66
aI-48
aI88
aI-43
aI89
aI72
aI83
aa(lp1161
I37
aI-36
aI51
aI45
aI-77
aI82
aI-62
aa(lp1162
I-55
aI6
aI30
aI-75
aI-1
aI17
aI59
aa(lp1163
I-29
aI-1
aI-29
aI-27
aI-51
aI-49
aI-13
aa(lp1164
I9
aI24
aI39
aI-55
aI-43
aI76
aI47
aassbag0
(g8
g2
Ntp1165
Rp1166
(dp1167
g12
I0
sg13
I0
sg14
(dp1168
g16
(lp1169
(lp1170
I61
aI59
aI-79
aI86
aI48
aI-48
aI-10
aa(lp1171
I-56
aI-5
aI94
aI71
aI-62
aI-32
aI-42
aa(lp1172
I-28
aI14
aI42
aI20
aI49
aI5
aI-96
aa(lp1173
I-9
aI89
aI69
aI-53
aI20
aI49
aI-6
aa(lp1174
I52
aI29
aI-96
aI62
aI-49
aI32
aI-26
aa(lp1175
I60
aI50
aI75
aI18
aI-64
aI-47
aI-72
aasg24
(lp1176
(lp1177
I-65
aI38
aI50
aI95
aI33
aI58
aI-38
aa(lp1178
I-39
aI-28
aI-48
aI44
aI-59
aI-49
aI10
aa(lp1179
I-40
aI15
aI74
aI28
aI-20
aI-45
aI48
aa(lp1180
I-76
aI-44
aI-98
aI-96
aI-26
aI-89
aI-83
aa(lp1181
I-26
aI44
aI-55
aI25
aI-84
aI-43
aI35
aa(lp1182
I-77
aI-47
aI-71
aI-79
aI11
aI82
aI-44
aasg32
(lp1183
(lp1184
I12
aI43
aI-90
aI-49
aI38
aI-62
aI32
aa(lp1185
I66
aI-48
aI-25
aI-31
aI89
aI72
aI83
aa(lp1186
I-33
aI100
aI51
aI45
aI18
aI82
aI-62
aa(lp1187
I-55
aI6
aI30
aI85
aI52
aI17
aI59
aa(lp1188
I60
aI10
aI13
aI-27
aI67
aI-49
aI-13
aa(lp1189
I9
aI24
aI39
aI61
aI-43
aI76
aI47
aassbag0
(g8
g2
Ntp1190
Rp1191
(dp1192
g12
I0
sg13
I0
sg14
(dp1193
g16
(lp1194
(lp1195
I61
aI59
aI51
aI86
aI48
aI-48
aI-10
aa(lp1196
I-56
aI-5
aI94
aI71
aI-62
aI-32
aI-42
aa(lp1197
I-28
aI14
aI-3
aI20
aI49
aI-68
aI-96
aa(lp1198
I82
aI89
aI69
aI-53
aI20
aI49
aI51
aa(lp1199
I52
aI29
aI-96
aI62
aI-49
aI32
aI-26
aa(lp1200
I60
aI50
aI75
aI18
aI13
aI77
aI-72
aasg24
(lp1201
(lp1202
I83
aI38
aI50
aI-89
aI33
aI-57
aI-38
aa(lp1203
I-39
aI-28
aI-48
aI-73
aI-59
aI-49
aI10
aa(lp1204
I-40
aI-54
aI74
aI28
aI77
aI-45
aI48
aa(lp1205
I38
aI-44
aI-98
aI-96
aI-26
aI-89
aI-83
aa(lp1206
I-26
aI44
aI-55
aI25
aI63
aI-43
aI35
aa(lp1207
I-77
aI20
aI-71
aI-79
aI-41
aI82
aI-44
aasg32
(lp1208
(lp1209
I-85
aI43
aI-90
aI90
aI38
aI-62
aI32
aa(lp1210
I66
aI-48
aI-25
aI-43
aI89
aI72
aI83
aa(lp1211
I37
aI100
aI51
aI45
aI-77
aI-27
aI-62
aa(lp1212
I85
aI-44
aI30
aI85
aI52
aI17
aI59
aa(lp1213
I-29
aI10
aI13
aI-27
aI-51
aI-49
aI-13
aa(lp1214
I9
aI24
aI39
aI61
aI-43
aI76
aI-27
aassbag0
(g8
g2
Ntp1215
Rp1216
(dp1217
g12
I0
sg13
I0
sg14
(dp1218
g16
(lp1219
(lp1220
I61
aI59
aI51
aI86
aI48
aI-48
aI-10
aa(lp1221
I-56
aI-5
aI94
aI71
aI-62
aI-32
aI-42
aa(lp1222
I-28
aI14
aI42
aI20
aI49
aI-68
aI33
aa(lp1223
I82
aI89
aI69
aI-53
aI20
aI-36
aI51
aa(lp1224
I52
aI29
aI-96
aI62
aI-49
aI32
aI-26
aa(lp1225
I60
aI50
aI75
aI18
aI-64
aI-47
aI-72
aasg24
(lp1226
(lp1227
I83
aI38
aI50
aI-89
aI33
aI58
aI-38
aa(lp1228
I-39
aI-28
aI-48
aI-73
aI-59
aI-49
aI10
aa(lp1229
I-40
aI15
aI74
aI28
aI-20
aI-45
aI48
aa(lp1230
I38
aI9
aI19
aI-96
aI-26
aI49
aI-83
aa(lp1231
I-26
aI44
aI-55
aI25
aI-84
aI-43
aI35
aa(lp1232
I12
aI20
aI-71
aI-79
aI11
aI82
aI-44
aasg32
(lp1233
(lp1234
I12
aI43
aI-90
aI-49
aI38
aI-62
aI-70
aa(lp1235
I66
aI-48
aI-25
aI-43
aI-83
aI72
aI-61
aa(lp1236
I-33
aI100
aI51
aI45
aI18
aI-27
aI-62
aa(lp1237
I-55
aI6
aI30
aI85
aI52
aI-64
aI59
aa(lp1238
I-29
aI10
aI13
aI-27
aI67
aI-49
aI-13
aa(lp1239
I-18
aI24
aI39
aI61
aI-43
aI76
aI47
aassbag0
(g8
g2
Ntp1240
Rp1241
(dp1242
g12
I0
sg13
I0
sg14
(dp1243
g16
(lp1244
(lp1245
I61
aI59
aI-79
aI86
aI48
aI-48
aI-10
aa(lp1246
I-56
aI-5
aI94
aI71
aI-62
aI-32
aI-42
aa(lp1247
I-28
aI14
aI-3
aI20
aI49
aI-68
aI-96
aa(lp1248
I-9
aI-99
aI69
aI-53
aI20
aI49
aI51
aa(lp1249
I52
aI29
aI73
aI62
aI-49
aI32
aI10
aa(lp1250
I60
aI50
aI-44
aI-74
aI13
aI-47
aI-72
aasg24
(lp1251
(lp1252
I-65
aI38
aI50
aI95
aI33
aI-57
aI1
aa(lp1253
I85
aI-28
aI-48
aI-73
aI-59
aI-49
aI10
aa(lp1254
I-40
aI-54
aI74
aI28
aI-20
aI-45
aI48
aa(lp1255
I-76
aI9
aI36
aI68
aI-26
aI-89
aI-83
aa(lp1256
I-26
aI44
aI-55
aI25
aI63
aI-43
aI-24
aa(lp1257
I12
aI-47
aI-71
aI-79
aI11
aI82
aI-44
aasg32
(lp1258
(lp1259
I12
aI43
aI-90
aI-49
aI38
aI-62
aI-70
aa(lp1260
I66
aI-48
aI88
aI-43
aI89
aI72
aI-61
aa(lp1261
I37
aI-36
aI51
aI45
aI-77
aI-27
aI-62
aa(lp1262
I-55
aI6
aI30
aI85
aI-1
aI-64
aI59
aa(lp1263
I-29
aI-1
aI-29
aI-27
aI-51
aI-49
aI-13
aa(lp1264
I-18
aI24
aI39
aI-55
aI-43
aI76
aI47
aassbasb.