ccopy_reg
_reconstructor
p0
(cAISuite.genetics
Generation
p1
c__builtin__
object
p2
Ntp3
Rp4
(dp5
S'generation'
p6
(lp7
g0
(c__main__
C4Organism
p8
g2
Ntp9
Rp10
(dp11
S'wins'
p12
I0
sS'losses'
p13
I0
sS'weights'
p14
(dp15
S' '
p16
(lp17
(lp18
I-49
aI-39
aI41
aI-75
aI-46
aI19
aI37
aa(lp19
I-45
aI31
aI52
aI34
aI-9
aI-63
aI-85
aa(lp20
I-70
aI-63
aI-33
aI-75
aI-61
aI-2
aI-60
aa(lp21
I69
aI76
aI57
aI66
aI66
aI7
aI-60
aa(lp22
I-89
aI50
aI-38
aI-59
aI84
aI79
aI-28
aa(lp23
I29
aI-97
aI-38
aI55
aI54
aI73
aI-14
aasS'O'
p24
(lp25
(lp26
I44
aI-25
aI77
aI-40
aI-36
aI31
aI47
aa(lp27
I-86
aI76
aI-52
aI73
aI16
aI-50
aI41
aa(lp28
I68
aI-43
aI-21
aI55
aI64
aI43
aI-3
aa(lp29
I-52
aI39
aI27
aI52
aI-42
aI-99
aI-17
aa(lp30
I-51
aI6
aI62
aI-38
aI-68
aI-75
aI75
aa(lp31
I33
aI-57
aI-49
aI-40
aI42
aI37
aI58
aasS'X'
p32
(lp33
(lp34
I50
aI-85
aI31
aI-74
aI-24
aI-81
aI35
aa(lp35
I35
aI-75
aI-5
aI34
aI-42
aI61
aI56
aa(lp36
I73
aI-59
aI42
aI-78
aI-52
aI-36
aI14
aa(lp37
I81
aI-100
aI-50
aI66
aI-30
aI40
aI80
aa(lp38
I-58
aI-29
aI50
aI-78
aI43
aI-40
aI92
aa(lp39
I87
aI-88
aI-45
aI37
aI-45
aI-48
aI-56
aassbag0
(g8
g2
Ntp40
Rp41
(dp42
g12
I0
sg13
I0
sg14
(dp43
g16
(lp44
(lp45
I-74
aI-3
aI41
aI-65
aI88
aI-34
aI95
aa(lp46
I-45
aI-38
aI52
aI31
aI-7
aI-65
aI99
aa(lp47
I21
aI-89
aI31
aI-67
aI-54
aI32
aI-67
aa(lp48
I66
aI77
aI46
aI66
aI-89
aI-54
aI-66
aa(lp49
I19
aI91
aI79
aI-66
aI-44
aI65
aI-37
aa(lp50
I31
aI33
aI26
aI55
aI30
aI77
aI-14
aasg24
(lp51
(lp52
I30
aI63
aI-12
aI-50
aI-36
aI-45
aI62
aa(lp53
I-90
aI-48
aI-37
aI66
aI-78
aI-41
aI41
aa(lp54
I64
aI-43
aI-29
aI58
aI86
aI39
aI75
aa(lp55
I-30
aI39
aI-68
aI50
aI8
aI53
aI47
aa(lp56
I-51
aI-13
aI54
aI-50
aI64
aI-75
aI-37
aa(lp57
I20
aI-79
aI-48
aI-42
aI26
aI35
aI-68
aasg32
(lp58
(lp59
I-17
aI-85
aI31
aI67
aI-24
aI16
aI13
aa(lp60
I64
aI-75
aI73
aI34
aI33
aI61
aI44
aa(lp61
I-91
aI-70
aI45
aI-85
aI-68
aI77
aI-75
aa(lp62
I69
aI31
aI-51
aI87
aI-44
aI35
aI-67
aa(lp63
I-67
aI-38
aI73
aI-81
aI-38
aI-55
aI-9
aa(lp64
I86
aI87
aI91
aI37
aI-34
aI-37
aI-54
aassbag0
(g8
g2
Ntp65
Rp66
(dp67
g12
I0
sg13
I0
sg14
(dp68
g16
(lp69
(lp70
I-69
aI-39
aI55
aI-94
aI-46
aI21
aI37
aa(lp71
I-36
aI31
aI-74
aI36
aI-8
aI-48
aI-91
aa(lp72
I-71
aI-63
aI-33
aI-78
aI-59
aI-33
aI-61
aa(lp73
I64
aI69
aI49
aI70
aI66
aI-45
aI-60
aa(lp74
I50
aI-75
aI52
aI-57
aI58
aI68
aI-22
aa(lp75
I-40
aI33
aI4
aI44
aI74
aI77
aI35
aasg24
(lp76
(lp77
I57
aI-30
aI70
aI66
aI25
aI11
aI-45
aa(lp78
I-90
aI56
aI10
aI57
aI-81
aI-64
aI-65
aa(lp79
I63
aI-26
aI-9
aI52
aI64
aI-45
aI-3
aa(lp80
I-60
aI39
aI32
aI38
aI-45
aI-99
aI-17
aa(lp81
I33
aI-37
aI78
aI56
aI-68
aI-75
aI-80
aa(lp82
I48
aI-15
aI30
aI-44
aI-62
aI39
aI-11
aasg32
(lp83
(lp84
I-37
aI54
aI49
aI44
aI-39
aI-81
aI-48
aa(lp85
I28
aI70
aI28
aI-81
aI55
aI-49
aI-69
aa(lp86
I79
aI-58
aI32
aI81
aI-38
aI55
aI-94
aa(lp87
I-23
aI-95
aI-33
aI53
aI-16
aI-46
aI72
aa(lp88
I-47
aI-10
aI26
aI-75
aI-39
aI-24
aI72
aa(lp89
I-100
aI52
aI-52
aI40
aI-63
aI73
aI-51
aassbag0
(g8
g2
Ntp90
Rp91
(dp92
g12
I0
sg13
I0
sg14
(dp93
g16
(lp94
(lp95
I47
aI62
aI41
aI-65
aI88
aI30
aI-42
aa(lp96
I-45
aI-38
aI52
aI31
aI-7
aI-65
aI-82
aa(lp97
I-86
aI10
aI-48
aI-67
aI-54
aI32
aI-67
aa(lp98
I66
aI77
aI46
aI66
aI69
aI-54
aI-66
aa(lp99
I19
aI91
aI79
aI-66
aI-44
aI65
aI-37
aa(lp100
I31
aI33
aI26
aI55
aI30
aI77
aI-14
aasg24
(lp101
(lp102
I30
aI63
aI77
aI-50
aI-36
aI-45
aI62
aa(lp103
I-90
aI-48
aI-37
aI66
aI19
aI-41
aI41
aa(lp104
I64
aI-43
aI-29
aI58
aI86
aI39
aI63
aa(lp105
I-30
aI39
aI-68
aI50
aI8
aI53
aI47
aa(lp106
I-51
aI6
aI54
aI-50
aI-47
aI68
aI-37
aa(lp107
I20
aI-79
aI-48
aI-42
aI26
aI35
aI99
aasg32
(lp108
(lp109
I-17
aI-85
aI31
aI67
aI74
aI16
aI13
aa(lp110
I64
aI-75
aI73
aI-43
aI33
aI61
aI44
aa(lp111
I-91
aI-70
aI45
aI-85
aI-68
aI77
aI-75
aa(lp112
I69
aI31
aI-51
aI87
aI-44
aI35
aI-67
aa(lp113
I-67
aI-38
aI73
aI-81
aI43
aI-55
aI89
aa(lp114
I86
aI87
aI91
aI37
aI-34
aI-37
aI-54
aassbag0
(g8
g2
Ntp115
Rp116
(dp117
g12
I0
sg13
I0
sg14
(dp118
g16
(lp119
(lp120
I-89
aI62
aI35
aI10
aI-47
aI32
aI-42
aa(lp121
I-68
aI-36
aI-72
aI33
aI-2
aI-36
aI-97
aa(lp122
I-87
aI-89
aI-48
aI78
aI-53
aI-63
aI-63
aa(lp123
I-67
aI64
aI19
aI56
aI-89
aI7
aI27
aa(lp124
I36
aI91
aI57
aI-80
aI71
aI54
aI-34
aa(lp125
I-49
aI33
aI12
aI67
aI68
aI85
aI54
aasg24
(lp126
(lp127
I60
aI-6
aI63
aI85
aI-36
aI-32
aI-45
aa(lp128
I-82
aI36
aI10
aI40
aI-81
aI-55
aI41
aa(lp129
I51
aI55
aI-15
aI55
aI86
aI-45
aI72
aa(lp130
I-39
aI-71
aI37
aI35
aI-48
aI41
aI29
aa(lp131
I-51
aI6
aI70
aI56
aI-47
aI-75
aI-63
aa(lp132
I47
aI-36
aI-58
aI-43
aI-62
aI38
aI-11
aasg32
(lp133
(lp134
I-30
aI-53
aI40
aI60
aI-53
aI46
aI-49
aa(lp135
I57
aI-71
aI43
aI34
aI-41
aI51
aI36
aa(lp136
I86
aI-61
aI29
aI81
aI-36
aI-36
aI-97
aa(lp137
I-8
aI31
aI21
aI77
aI-26
aI40
aI-67
aa(lp138
I-43
aI-20
aI33
aI-85
aI62
aI-43
aI52
aa(lp139
I-100
aI53
aI-58
aI55
aI-41
aI58
aI-41
aassbag0
(g8
g2
Ntp140
Rp141
(dp142
g12
I0
sg13
I0
sg14
(dp143
g16
(lp144
(lp145
I47
aI-39
aI55
aI10
aI-46
aI-61
aI68
aa(lp146
I-36
aI-34
aI14
aI36
aI-8
aI-48
aI-85
aa(lp147
I-71
aI-37
aI78
aI-78
aI-59
aI-33
aI-61
aa(lp148
I56
aI82
aI49
aI70
aI66
aI-45
aI-58
aa(lp149
I50
aI10
aI-38
aI-57
aI58
aI-64
aI99
aa(lp150
I9
aI-97
aI4
aI56
aI74
aI77
aI35
aasg24
(lp151
(lp152
I57
aI-30
aI70
aI66
aI25
aI-32
aI41
aa(lp153
I-86
aI56
aI10
aI57
aI13
aI-64
aI50
aa(lp154
I-90
aI-26
aI-9
aI52
aI-10
aI-45
aI69
aa(lp155
I-60
aI39
aI32
aI-25
aI-45
aI-99
aI-37
aa(lp156
I33
aI-37
aI78
aI-38
aI-68
aI-75
aI75
aa(lp157
I48
aI87
aI-60
aI-40
aI-62
aI39
aI17
aasg32
(lp158
(lp159
I50
aI54
aI-24
aI44
aI-39
aI68
aI-48
aa(lp160
I28
aI-35
aI-5
aI34
aI55
aI42
aI-69
aa(lp161
I79
aI-55
aI-16
aI-70
aI-38
aI-36
aI-94
aa(lp162
I-37
aI-95
aI21
aI53
aI87
aI-40
aI72
aa(lp163
I-47
aI45
aI26
aI-75
aI81
aI-21
aI72
aa(lp164
I-100
aI52
aI-52
aI40
aI-63
aI73
aI-51
aassbag0
(g8
g2
Ntp165
Rp166
(dp167
g12
I0
sg13
I0
sg14
(dp168
g16
(lp169
(lp170
I47
aI-39
aI55
aI10
aI-46
aI9
aI68
aa(lp171
I-36
aI-34
aI-75
aI36
aI-8
aI-48
aI-85
aa(lp172
I-71
aI-37
aI78
aI-78
aI-59
aI-33
aI-61
aa(lp173
I56
aI82
aI49
aI70
aI66
aI-45
aI-58
aa(lp174
I50
aI-75
aI52
aI-57
aI-9
aI-64
aI99
aa(lp175
I9
aI33
aI-38
aI56
aI74
aI77
aI35
aasg24
(lp176
(lp177
I57
aI-30
aI70
aI66
aI25
aI11
aI41
aa(lp178
I-86
aI56
aI-83
aI57
aI-81
aI-64
aI50
aa(lp179
I80
aI-26
aI43
aI52
aI43
aI52
aI69
aa(lp180
I-60
aI-71
aI32
aI55
aI-45
aI39
aI-37
aa(lp181
I33
aI-37
aI-26
aI-38
aI-68
aI-75
aI75
aa(lp182
I48
aI87
aI-60
aI4
aI-62
aI39
aI17
aasg32
(lp183
(lp184
I-37
aI54
aI-24
aI-74
aI-39
aI68
aI-48
aa(lp185
I28
aI-35
aI-5
aI-80
aI55
aI-49
aI76
aa(lp186
I79
aI24
aI-16
aI-70
aI-38
aI55
aI14
aa(lp187
I65
aI-95
aI21
aI53
aI-20
aI68
aI72
aa(lp188
I-47
aI-10
aI26
aI-75
aI81
aI8
aI72
aa(lp189
I-100
aI52
aI-52
aI40
aI-63
aI73
aI-51
aassbag0
(g8
g2
Ntp190
Rp191
(dp192
g12
I0
sg13
I0
sg14
(dp193
g16
(lp194
(lp195
I-62
aI-21
aI61
aI-84
aI88
aI9
aI66
aa(lp196
I-13
aI40
aI53
aI37
aI-13
aI-77
aI-84
aa(lp197
I-53
aI-37
aI-18
aI-70
aI-60
aI-2
aI-65
aa(lp198
I61
aI83
aI75
aI80
aI67
aI-50
aI-63
aa(lp199
I17
aI50
aI-38
aI-43
aI-27
aI-77
aI-25
aa(lp200
I-31
aI-83
aI32
aI43
aI35
aI70
aI17
aasg24
(lp201
(lp202
I27
aI63
aI77
aI-60
aI-36
aI11
aI48
aa(lp203
I-94
aI-54
aI-68
aI83
aI13
aI-50
aI41
aa(lp204
I76
aI-43
aI-37
aI56
aI-21
aI47
aI-23
aa(lp205
I-73
aI39
aI27
aI53
aI1
aI64
aI-17
aa(lp206
I-51
aI-13
aI-26
aI-79
aI64
aI60
aI75
aa(lp207
I21
aI-100
aI-38
aI-43
aI43
aI37
aI17
aasg32
(lp208
(lp209
I50
aI-85
aI31
aI58
aI-24
aI-81
aI24
aa(lp210
I-5
aI56
aI88
aI-62
aI44
aI-41
aI64
aa(lp211
I72
aI-66
aI48
aI-78
aI-70
aI66
aI-49
aa(lp212
I-37
aI31
aI-34
aI63
aI-34
aI30
aI89
aa(lp213
I-71
aI45
aI67
aI-70
aI-39
aI-36
aI90
aa(lp214
I86
aI69
aI-45
aI22
aI-57
aI-26
aI-64
aassbag0
(g8
g2
Ntp215
Rp216
(dp217
g12
I0
sg13
I0
sg14
(dp218
g16
(lp219
(lp220
I-69
aI62
aI55
aI-94
aI-46
aI21
aI37
aa(lp221
I-36
aI31
aI-74
aI36
aI-8
aI-48
aI-91
aa(lp222
I-71
aI-63
aI-33
aI-78
aI-59
aI-33
aI-61
aa(lp223
I64
aI69
aI49
aI70
aI-89
aI7
aI42
aa(lp224
I-89
aI-75
aI52
aI-57
aI-9
aI68
aI-22
aa(lp225
I-40
aI-97
aI4
aI-67
aI74
aI77
aI35
aasg24
(lp226
(lp227
I57
aI-30
aI70
aI66
aI25
aI-32
aI-45
aa(lp228
I14
aI56
aI-83
aI57
aI-81
aI-64
aI-65
aa(lp229
I63
aI-26
aI-9
aI52
aI64
aI-45
aI-3
aa(lp230
I-60
aI-71
aI32
aI38
aI-45
aI39
aI-17
aa(lp231
I33
aI-37
aI78
aI56
aI-68
aI52
aI-80
aa(lp232
I48
aI-15
aI30
aI-44
aI-62
aI39
aI17
aasg32
(lp233
(lp234
I-37
aI-21
aI-10
aI-74
aI-39
aI68
aI35
aa(lp235
I28
aI70
aI-5
aI-81
aI-39
aI-49
aI76
aa(lp236
I79
aI-58
aI32
aI81
aI-38
aI55
aI-94
aa(lp237
I-23
aI-95
aI21
aI53
aI-16
aI-46
aI72
aa(lp238
I-47
aI-10
aI26
aI-75
aI-39
aI-24
aI72
aa(lp239
I-100
aI52
aI-52
aI40
aI-63
aI73
aI-51
aassbag0
(g8
g2
Ntp240
Rp241
(dp242
g12
I0
sg13
I0
sg14
(dp243
g16
(lp244
(lp245
I-89
aI62
aI35
aI10
aI-47
aI32
aI-42
aa(lp246
I-68
aI-36
aI52
aI33
aI-2
aI-36
aI99
aa(lp247
I-87
aI-89
aI-48
aI78
aI-53
aI20
aI-63
aa(lp248
I-67
aI64
aI19
aI56
aI-89
aI7
aI27
aa(lp249
I36
aI91
aI57
aI-80
aI71
aI54
aI-34
aa(lp250
I-49
aI33
aI12
aI-67
aI68
aI85
aI-14
aasg24
(lp251
(lp252
I60
aI-6
aI63
aI-40
aI-36
aI-32
aI-45
aa(lp253
I14
aI36
aI-21
aI40
aI-81
aI-55
aI-61
aa(lp254
I51
aI-9
aI-15
aI55
aI86
aI-45
aI72
aa(lp255
I-39
aI-71
aI37
aI35
aI-48
aI41
aI29
aa(lp256
I8
aI-60
aI70
aI56
aI-47
aI-75
aI-63
aa(lp257
I47
aI-36
aI30
aI-43
aI-62
aI38
aI-11
aasg32
(lp258
(lp259
I-30
aI-53
aI40
aI60
aI74
aI46
aI-49
aa(lp260
I57
aI-71
aI43
aI34
aI-41
aI51
aI-69
aa(lp261
I-91
aI-61
aI29
aI-85
aI-36
aI-36
aI-97
aa(lp262
I81
aI31
aI21
aI77
aI-26
aI40
aI65
aa(lp263
I-43
aI-20
aI33
aI-85
aI62
aI-43
aI-9
aa(lp264
I-100
aI-88
aI-58
aI55
aI-41
aI-48
aI-41
aassbag0
(g8
g2
Ntp265
Rp266
(dp267
g12
I0
sg13
I0
sg14
(dp268
g16
(lp269
(lp270
I47
aI62
aI35
aI-55
aI-47
aI30
aI-42
aa(lp271
I-68
aI-36
aI33
aI33
aI-2
aI-36
aI99
aa(lp272
I-87
aI36
aI-48
aI-71
aI-53
aI20
aI-63
aa(lp273
I61
aI71
aI19
aI56
aI-89
aI7
aI-56
aa(lp274
I36
aI-75
aI57
aI-80
aI71
aI65
aI99
aa(lp275
I19
aI33
aI12
aI68
aI68
aI85
aI54
aasg24
(lp276
(lp277
I60
aI-6
aI63
aI-40
aI-36
aI-32
aI55
aa(lp278
I-82
aI-42
aI10
aI40
aI-81
aI-55
aI45
aa(lp279
I56
aI-9
aI-15
aI55
aI-10
aI35
aI72
aa(lp280
I-39
aI-71
aI37
aI49
aI-48
aI41
aI38
aa(lp281
I8
aI-60
aI70
aI-9
aI-47
aI-75
aI-63
aa(lp282
I47
aI-36
aI-70
aI-39
aI25
aI38
aI-11
aasg32
(lp283
(lp284
I-30
aI-53
aI-37
aI60
aI74
aI46
aI-49
aa(lp285
I57
aI-55
aI43
aI34
aI-41
aI51
aI36
aa(lp286
I86
aI-62
aI-16
aI-78
aI-36
aI-36
aI-97
aa(lp287
I73
aI-89
aI21
aI77
aI87
aI54
aI-67
aa(lp288
I-43
aI-20
aI33
aI-85
aI62
aI-59
aI-9
aa(lp289
I-100
aI-88
aI91
aI55
aI-41
aI58
aI-41
aassbag0
(g8
g2
Ntp290
Rp291
(dp292
g12
I0
sg13
I0
sg14
(dp293
g16
(lp294
(lp295
I-82
aI-3
aI55
aI-40
aI-47
aI34
aI-42
aa(lp296
I-36
aI-34
aI-72
aI-84
aI-6
aI-50
aI-90
aa(lp297
I-88
aI10
aI31
aI-62
aI-52
aI44
aI-68
aa(lp298
I58
aI70
aI37
aI70
aI-89
aI-54
aI42
aa(lp299
I33
aI91
aI74
aI-64
aI58
aI-77
aI-31
aa(lp300
I-49
aI-68
aI18
aI43
aI49
aI81
aI-14
aasg24
(lp301
(lp302
I43
aI-10
aI70
aI85
aI-36
aI-39
aI-45
aa(lp303
I-97
aI36
aI10
aI51
aI-80
aI-55
aI-61
aa(lp304
I59
aI-26
aI-23
aI55
aI86
aI-45
aI69
aa(lp305
I-47
aI39
aI37
aI37
aI1
aI51
aI38
aa(lp306
I8
aI-37
aI62
aI56
aI-47
aI68
aI-54
aa(lp307
I35
aI-58
aI-37
aI-46
aI-62
aI37
aI-40
aasg32
(lp308
(lp309
I-24
aI-53
aI40
aI51
aI-39
aI38
aI13
aa(lp310
I50
aI-67
aI58
aI-63
aI33
aI-32
aI53
aa(lp311
I79
aI-69
aI35
aI81
aI-54
aI-36
aI-72
aa(lp312
I-8
aI-89
aI-35
aI74
aI-30
aI-52
aI82
aa(lp313
I-56
aI-29
aI49
aI-78
aI81
aI-39
aI70
aa(lp314
I86
aI70
aI91
aI40
aI-53
aI-26
aI-49
aassbag0
(g8
g2
Ntp315
Rp316
(dp317
g12
I0
sg13
I0
sg14
(dp318
g16
(lp319
(lp320
I-89
aI62
aI49
aI10
aI-47
aI-61
aI-42
aa(lp321
I-59
aI-34
aI-72
aI36
aI-1
aI-21
aI99
aa(lp322
I-88
aI36
aI-48
aI78
aI-51
aI-63
aI-63
aa(lp323
I-67
aI57
aI11
aI61
aI-89
aI7
aI42
aa(lp324
I50
aI-75
aI52
aI-78
aI58
aI43
aI99
aa(lp325
I-49
aI33
aI4
aI-67
aI88
aI89
aI54
aasg24
(lp326
(lp327
I73
aI-10
aI63
aI85
aI2
aI-32
aI49
aa(lp328
I14
aI36
aI10
aI25
aI-81
aI-69
aI-61
aa(lp329
I-90
aI-9
aI-9
aI52
aI-10
aI-45
aI69
aa(lp330
I-47
aI-71
aI37
aI-25
aI-48
aI39
aI-56
aa(lp331
I8
aI-60
aI78
aI56
aI-47
aI-75
aI-80
aa(lp332
I62
aI-15
aI30
aI-47
aI-62
aI40
aI-11
aasg32
(lp333
(lp334
I-37
aI-21
aI-37
aI44
aI-53
aI68
aI-48
aa(lp335
I50
aI-51
aI28
aI34
aI-39
aI42
aI-69
aa(lp336
I86
aI-60
aI-16
aI-70
aI-22
aI-36
aI-94
aa(lp337
I-8
aI-89
aI21
aI64
aI87
aI-52
aI65
aa(lp338
I-32
aI-10
aI9
aI-82
aI81
aI8
aI52
aa(lp339
I-100
aI53
aI-58
aI58
aI-59
aI58
aI-36
aassbag0
(g8
g2
Ntp340
Rp341
(dp342
g12
I0
sg13
I0
sg14
(dp343
g16
(lp344
(lp345
I47
aI62
aI49
aI10
aI-47
aI34
aI99
aa(lp346
I-59
aI-34
aI14
aI36
aI-1
aI-21
aI99
aa(lp347
I-88
aI36
aI-48
aI78
aI-51
aI-63
aI-63
aa(lp348
I49
aI57
aI11
aI61
aI-89
aI7
aI-56
aa(lp349
I50
aI-75
aI52
aI-78
aI58
aI-64
aI99
aa(lp350
I9
aI33
aI4
aI-67
aI88
aI89
aI54
aasg24
(lp351
(lp352
I73
aI-10
aI63
aI85
aI2
aI-32
aI-45
aa(lp353
I14
aI36
aI10
aI25
aI-81
aI-69
aI-61
aa(lp354
I46
aI-9
aI-9
aI52
aI-10
aI-45
aI69
aa(lp355
I-47
aI-71
aI37
aI-25
aI-48
aI39
aI-56
aa(lp356
I8
aI-60
aI78
aI56
aI-47
aI-75
aI-80
aa(lp357
I62
aI-15
aI-81
aI4
aI-62
aI40
aI-11
aasg32
(lp358
(lp359
I-37
aI-21
aI49
aI44
aI-53
aI68
aI-48
aa(lp360
I50
aI-51
aI28
aI-82
aI-39
aI42
aI-69
aa(lp361
I86
aI24
aI-16
aI-70
aI-22
aI-36
aI-94
aa(lp362
I-8
aI-89
aI21
aI64
aI-12
aI68
aI65
aa(lp363
I-32
aI-10
aI9
aI-82
aI81
aI-26
aI52
aa(lp364
I-100
aI53
aI-58
aI58
aI-59
aI58
aI-36
aassbag0
(g8
g2
Ntp365
Rp366
(dp367
g12
I0
sg13
I0
sg14
(dp368
g16
(lp369
(lp370
I-89
aI62
aI49
aI10
aI-47
aI34
aI-42
aa(lp371
I-59
aI-34
aI14
aI36
aI-1
aI-21
aI-97
aa(lp372
I-88
aI36
aI-48
aI78
aI-51
aI-63
aI-63
aa(lp373
I49
aI57
aI11
aI61
aI-89
aI7
aI42
aa(lp374
I50
aI-75
aI52
aI-78
aI58
aI43
aI99
aa(lp375
I-49
aI33
aI4
aI-67
aI88
aI89
aI54
aasg24
(lp376
(lp377
I73
aI-10
aI63
aI85
aI2
aI-32
aI-45
aa(lp378
I-82
aI36
aI10
aI25
aI-81
aI-69
aI-61
aa(lp379
I46
aI-9
aI-9
aI52
aI-10
aI-45
aI69
aa(lp380
I-47
aI-71
aI37
aI22
aI-48
aI39
aI21
aa(lp381
I8
aI-60
aI78
aI-9
aI-47
aI-75
aI-80
aa(lp382
I62
aI-15
aI30
aI4
aI-62
aI40
aI-11
aasg32
(lp383
(lp384
I-37
aI-21
aI49
aI44
aI-53
aI68
aI-48
aa(lp385
I50
aI-51
aI28
aI34
aI-39
aI42
aI-69
aa(lp386
I86
aI24
aI20
aI81
aI-22
aI-36
aI-94
aa(lp387
I65
aI-89
aI21
aI64
aI87
aI-52
aI65
aa(lp388
I-32
aI-10
aI9
aI-82
aI81
aI8
aI52
aa(lp389
I-100
aI53
aI-58
aI58
aI-59
aI58
aI-36
aassbag0
(g8
g2
Ntp390
Rp391
(dp392
g12
I0
sg13
I0
sg14
(dp393
g16
(lp394
(lp395
I-69
aI-39
aI55
aI10
aI-46
aI21
aI-42
aa(lp396
I-36
aI-34
aI-74
aI36
aI-8
aI-48
aI-91
aa(lp397
I-71
aI-63
aI-33
aI-78
aI-59
aI-33
aI-61
aa(lp398
I-67
aI69
aI49
aI70
aI66
aI-45
aI-60
aa(lp399
I50
aI-75
aI-38
aI-57
aI58
aI68
aI-22
aa(lp400
I-40
aI-97
aI-38
aI44
aI74
aI77
aI35
aasg24
(lp401
(lp402
I57
aI-30
aI70
aI66
aI25
aI-32
aI-45
aa(lp403
I14
aI56
aI10
aI57
aI13
aI-64
aI-65
aa(lp404
I63
aI-26
aI43
aI52
aI64
aI52
aI69
aa(lp405
I-60
aI-71
aI32
aI38
aI-45
aI39
aI-17
aa(lp406
I33
aI-37
aI-26
aI56
aI-68
aI-75
aI75
aa(lp407
I48
aI-15
aI-39
aI-44
aI59
aI39
aI17
aasg32
(lp408
(lp409
I50
aI54
aI49
aI44
aI-39
aI-81
aI-48
aa(lp410
I28
aI-67
aI28
aI-81
aI55
aI-49
aI76
aa(lp411
I79
aI-58
aI32
aI-70
aI-38
aI55
aI14
aa(lp412
I-23
aI-95
aI21
aI53
aI-16
aI-46
aI72
aa(lp413
I-47
aI-10
aI26
aI-75
aI81
aI-24
aI72
aa(lp414
I87
aI52
aI-52
aI40
aI-63
aI73
aI-51
aassbag0
(g8
g2
Ntp415
Rp416
(dp417
g12
I0
sg13
I0
sg14
(dp418
g16
(lp419
(lp420
I-69
aI62
aI55
aI-94
aI-46
aI21
aI37
aa(lp421
I-36
aI31
aI-74
aI36
aI-8
aI-48
aI-91
aa(lp422
I-71
aI-63
aI-33
aI78
aI-59
aI-33
aI-61
aa(lp423
I-67
aI69
aI49
aI70
aI66
aI-45
aI42
aa(lp424
I-89
aI-75
aI-38
aI-57
aI-9
aI68
aI-22
aa(lp425
I-40
aI33
aI-38
aI-67
aI74
aI77
aI35
aasg24
(lp426
(lp427
I57
aI-30
aI70
aI66
aI25
aI-32
aI-45
aa(lp428
I-90
aI56
aI-83
aI57
aI-81
aI-64
aI-65
aa(lp429
I63
aI-26
aI43
aI52
aI64
aI-45
aI-3
aa(lp430
I-60
aI-71
aI32
aI38
aI-45
aI39
aI-17
aa(lp431
I33
aI-37
aI78
aI-67
aI-68
aI52
aI75
aa(lp432
I48
aI-15
aI-39
aI-44
aI-62
aI39
aI17
aasg32
(lp433
(lp434
I-37
aI54
aI-10
aI-74
aI-39
aI-81
aI35
aa(lp435
I28
aI70
aI-5
aI-81
aI55
aI-49
aI-69
aa(lp436
I79
aI-58
aI32
aI-70
aI-38
aI55
aI14
aa(lp437
I-23
aI-95
aI21
aI53
aI-16
aI-46
aI72
aa(lp438
I-47
aI45
aI26
aI-75
aI-39
aI-24
aI72
aa(lp439
I87
aI52
aI-52
aI40
aI-63
aI73
aI-51
aassbag0
(g8
g2
Ntp440
Rp441
(dp442
g12
I0
sg13
I0
sg14
(dp443
g16
(lp444
(lp445
I-49
aI-39
aI41
aI-75
aI-46
aI19
aI-42
aa(lp446
I-45
aI-38
aI-75
aI34
aI-9
aI-63
aI-85
aa(lp447
I-70
aI-63
aI-33
aI-75
aI-61
aI20
aI-60
aa(lp448
I69
aI76
aI57
aI66
aI66
aI7
aI-60
aa(lp449
I-89
aI50
aI-38
aI-59
aI-9
aI79
aI-28
aa(lp450
I-31
aI33
aI-38
aI55
aI54
aI73
aI17
aasg24
(lp451
(lp452
I44
aI-25
aI-12
aI48
aI49
aI31
aI47
aa(lp453
I-86
aI76
aI-52
aI73
aI16
aI-50
aI-69
aa(lp454
I68
aI55
aI-21
aI55
aI64
aI43
aI-3
aa(lp455
I-52
aI39
aI-66
aI52
aI15
aI43
aI38
aa(lp456
I58
aI6
aI62
aI-38
aI-68
aI52
aI75
aa(lp457
I33
aI87
aI-49
aI-40
aI42
aI37
aI58
aasg32
(lp458
(lp459
I-23
aI-85
aI-10
aI77
aI74
aI-81
aI35
aa(lp460
I35
aI-75
aI-5
aI-80
aI-42
aI61
aI56
aa(lp461
I-91
aI-59
aI42
aI-78
aI-52
aI-36
aI14
aa(lp462
I81
aI-100
aI-50
aI66
aI-30
aI40
aI80
aa(lp463
I-58
aI-29
aI50
aI-78
aI43
aI-40
aI92
aa(lp464
I87
aI-88
aI91
aI37
aI-45
aI-48
aI-56
aassbag0
(g8
g2
Ntp465
Rp466
(dp467
g12
I0
sg13
I0
sg14
(dp468
g16
(lp469
(lp470
I-82
aI62
aI55
aI10
aI88
aI-34
aI-42
aa(lp471
I-36
aI50
aI53
aI36
aI-6
aI-50
aI-90
aa(lp472
I21
aI-89
aI31
aI-62
aI-52
aI-63
aI-68
aa(lp473
I-67
aI70
aI-65
aI70
aI-89
aI7
aI-66
aa(lp474
I33
aI91
aI74
aI-64
aI-44
aI-77
aI-31
aa(lp475
I-49
aI-68
aI18
aI-67
aI49
aI81
aI54
aasg24
(lp476
(lp477
I43
aI-10
aI70
aI-60
aI2
aI-39
aI63
aa(lp478
I-97
aI-54
aI-52
aI51
aI-80
aI-55
aI41
aa(lp479
I59
aI-26
aI-23
aI55
aI-21
aI43
aI-43
aa(lp480
I-47
aI-71
aI37
aI37
aI1
aI51
aI38
aa(lp481
I-51
aI-37
aI62
aI56
aI-47
aI-75
aI-54
aa(lp482
I35
aI-58
aI-37
aI-46
aI-62
aI37
aI-40
aasg32
(lp483
(lp484
I-24
aI-53
aI40
aI51
aI-39
aI38
aI-48
aa(lp485
I-5
aI42
aI58
aI-63
aI33
aI-32
aI53
aa(lp486
I79
aI-69
aI35
aI81
aI-54
aI-36
aI-72
aa(lp487
I57
aI31
aI21
aI74
aI-30
aI-52
aI82
aa(lp488
I-56
aI-29
aI49
aI-78
aI-38
aI-39
aI70
aa(lp489
I-100
aI70
aI-58
aI40
aI-53
aI58
aI-49
aassbag0
(g8
g2
Ntp490
Rp491
(dp492
g12
I0
sg13
I0
sg14
(dp493
g16
(lp494
(lp495
I-69
aI-39
aI55
aI-94
aI-46
aI21
aI37
aa(lp496
I-36
aI-34
aI-74
aI36
aI-8
aI-48
aI-91
aa(lp497
I-71
aI-63
aI-33
aI78
aI-59
aI-33
aI-61
aa(lp498
I64
aI69
aI49
aI70
aI66
aI7
aI42
aa(lp499
I-89
aI-75
aI-38
aI-57
aI-9
aI68
aI-22
aa(lp500
I-40
aI33
aI-38
aI44
aI74
aI77
aI35
aasg24
(lp501
(lp502
I57
aI-30
aI70
aI66
aI25
aI11
aI-45
aa(lp503
I14
aI56
aI-83
aI57
aI-81
aI-64
aI-65
aa(lp504
I63
aI-26
aI-9
aI52
aI64
aI52
aI69
aa(lp505
I-60
aI39
aI32
aI38
aI-45
aI39
aI21
aa(lp506
I33
aI-37
aI78
aI56
aI-68
aI52
aI-80
aa(lp507
I48
aI87
aI30
aI-44
aI-62
aI39
aI17
aasg32
(lp508
(lp509
I50
aI-21
aI49
aI44
aI-39
aI68
aI-48
aa(lp510
I28
aI-67
aI-5
aI-81
aI55
aI-49
aI-69
aa(lp511
I79
aI-58
aI32
aI-70
aI-38
aI-36
aI14
aa(lp512
I-23
aI-95
aI-33
aI53
aI-16
aI-46
aI72
aa(lp513
I-47
aI-10
aI26
aI-75
aI-39
aI-24
aI72
aa(lp514
I87
aI52
aI-52
aI40
aI-63
aI73
aI-51
aassbasS'game_class'
p515
c__main__
Connect4
p516
sS'fit_calced'
p517
I00
sb.